
bomb:     file format elf64-x86-64


Disassembly of section .init:

00000000000017a0 <_init>:
    17a0:	48 83 ec 08          	sub    $0x8,%rsp
    17a4:	48 8b 05 3d 38 20 00 	mov    0x20383d(%rip),%rax        # 204fe8 <__gmon_start__>
    17ab:	48 85 c0             	test   %rax,%rax
    17ae:	74 02                	je     17b2 <_init+0x12>
    17b0:	ff d0                	callq  *%rax
    17b2:	48 83 c4 08          	add    $0x8,%rsp
    17b6:	c3                   	retq   

Disassembly of section .plt:

00000000000017c0 <.plt>:
    17c0:	ff 35 22 37 20 00    	pushq  0x203722(%rip)        # 204ee8 <_GLOBAL_OFFSET_TABLE_+0x8>
    17c6:	ff 25 24 37 20 00    	jmpq   *0x203724(%rip)        # 204ef0 <_GLOBAL_OFFSET_TABLE_+0x10>
    17cc:	0f 1f 40 00          	nopl   0x0(%rax)

00000000000017d0 <__strcat_chk@plt>:
    17d0:	ff 25 22 37 20 00    	jmpq   *0x203722(%rip)        # 204ef8 <__strcat_chk@GLIBC_2.3.4>
    17d6:	68 00 00 00 00       	pushq  $0x0
    17db:	e9 e0 ff ff ff       	jmpq   17c0 <.plt>

00000000000017e0 <getenv@plt>:
    17e0:	ff 25 1a 37 20 00    	jmpq   *0x20371a(%rip)        # 204f00 <getenv@GLIBC_2.2.5>
    17e6:	68 01 00 00 00       	pushq  $0x1
    17eb:	e9 d0 ff ff ff       	jmpq   17c0 <.plt>

00000000000017f0 <strcasecmp@plt>:
    17f0:	ff 25 12 37 20 00    	jmpq   *0x203712(%rip)        # 204f08 <strcasecmp@GLIBC_2.2.5>
    17f6:	68 02 00 00 00       	pushq  $0x2
    17fb:	e9 c0 ff ff ff       	jmpq   17c0 <.plt>

0000000000001800 <__errno_location@plt>:
    1800:	ff 25 0a 37 20 00    	jmpq   *0x20370a(%rip)        # 204f10 <__errno_location@GLIBC_2.2.5>
    1806:	68 03 00 00 00       	pushq  $0x3
    180b:	e9 b0 ff ff ff       	jmpq   17c0 <.plt>

0000000000001810 <strcpy@plt>:
    1810:	ff 25 02 37 20 00    	jmpq   *0x203702(%rip)        # 204f18 <strcpy@GLIBC_2.2.5>
    1816:	68 04 00 00 00       	pushq  $0x4
    181b:	e9 a0 ff ff ff       	jmpq   17c0 <.plt>

0000000000001820 <puts@plt>:
    1820:	ff 25 fa 36 20 00    	jmpq   *0x2036fa(%rip)        # 204f20 <puts@GLIBC_2.2.5>
    1826:	68 05 00 00 00       	pushq  $0x5
    182b:	e9 90 ff ff ff       	jmpq   17c0 <.plt>

0000000000001830 <write@plt>:
    1830:	ff 25 f2 36 20 00    	jmpq   *0x2036f2(%rip)        # 204f28 <write@GLIBC_2.2.5>
    1836:	68 06 00 00 00       	pushq  $0x6
    183b:	e9 80 ff ff ff       	jmpq   17c0 <.plt>

0000000000001840 <__stack_chk_fail@plt>:
    1840:	ff 25 ea 36 20 00    	jmpq   *0x2036ea(%rip)        # 204f30 <__stack_chk_fail@GLIBC_2.4>
    1846:	68 07 00 00 00       	pushq  $0x7
    184b:	e9 70 ff ff ff       	jmpq   17c0 <.plt>

0000000000001850 <alarm@plt>:
    1850:	ff 25 e2 36 20 00    	jmpq   *0x2036e2(%rip)        # 204f38 <alarm@GLIBC_2.2.5>
    1856:	68 08 00 00 00       	pushq  $0x8
    185b:	e9 60 ff ff ff       	jmpq   17c0 <.plt>

0000000000001860 <close@plt>:
    1860:	ff 25 da 36 20 00    	jmpq   *0x2036da(%rip)        # 204f40 <close@GLIBC_2.2.5>
    1866:	68 09 00 00 00       	pushq  $0x9
    186b:	e9 50 ff ff ff       	jmpq   17c0 <.plt>

0000000000001870 <read@plt>:
    1870:	ff 25 d2 36 20 00    	jmpq   *0x2036d2(%rip)        # 204f48 <read@GLIBC_2.2.5>
    1876:	68 0a 00 00 00       	pushq  $0xa
    187b:	e9 40 ff ff ff       	jmpq   17c0 <.plt>

0000000000001880 <fgets@plt>:
    1880:	ff 25 ca 36 20 00    	jmpq   *0x2036ca(%rip)        # 204f50 <fgets@GLIBC_2.2.5>
    1886:	68 0b 00 00 00       	pushq  $0xb
    188b:	e9 30 ff ff ff       	jmpq   17c0 <.plt>

0000000000001890 <signal@plt>:
    1890:	ff 25 c2 36 20 00    	jmpq   *0x2036c2(%rip)        # 204f58 <signal@GLIBC_2.2.5>
    1896:	68 0c 00 00 00       	pushq  $0xc
    189b:	e9 20 ff ff ff       	jmpq   17c0 <.plt>

00000000000018a0 <gethostbyname@plt>:
    18a0:	ff 25 ba 36 20 00    	jmpq   *0x2036ba(%rip)        # 204f60 <gethostbyname@GLIBC_2.2.5>
    18a6:	68 0d 00 00 00       	pushq  $0xd
    18ab:	e9 10 ff ff ff       	jmpq   17c0 <.plt>

00000000000018b0 <__memmove_chk@plt>:
    18b0:	ff 25 b2 36 20 00    	jmpq   *0x2036b2(%rip)        # 204f68 <__memmove_chk@GLIBC_2.3.4>
    18b6:	68 0e 00 00 00       	pushq  $0xe
    18bb:	e9 00 ff ff ff       	jmpq   17c0 <.plt>

00000000000018c0 <strtol@plt>:
    18c0:	ff 25 aa 36 20 00    	jmpq   *0x2036aa(%rip)        # 204f70 <strtol@GLIBC_2.2.5>
    18c6:	68 0f 00 00 00       	pushq  $0xf
    18cb:	e9 f0 fe ff ff       	jmpq   17c0 <.plt>

00000000000018d0 <fflush@plt>:
    18d0:	ff 25 a2 36 20 00    	jmpq   *0x2036a2(%rip)        # 204f78 <fflush@GLIBC_2.2.5>
    18d6:	68 10 00 00 00       	pushq  $0x10
    18db:	e9 e0 fe ff ff       	jmpq   17c0 <.plt>

00000000000018e0 <__isoc99_sscanf@plt>:
    18e0:	ff 25 9a 36 20 00    	jmpq   *0x20369a(%rip)        # 204f80 <__isoc99_sscanf@GLIBC_2.7>
    18e6:	68 11 00 00 00       	pushq  $0x11
    18eb:	e9 d0 fe ff ff       	jmpq   17c0 <.plt>

00000000000018f0 <__printf_chk@plt>:
    18f0:	ff 25 92 36 20 00    	jmpq   *0x203692(%rip)        # 204f88 <__printf_chk@GLIBC_2.3.4>
    18f6:	68 12 00 00 00       	pushq  $0x12
    18fb:	e9 c0 fe ff ff       	jmpq   17c0 <.plt>

0000000000001900 <fopen@plt>:
    1900:	ff 25 8a 36 20 00    	jmpq   *0x20368a(%rip)        # 204f90 <fopen@GLIBC_2.2.5>
    1906:	68 13 00 00 00       	pushq  $0x13
    190b:	e9 b0 fe ff ff       	jmpq   17c0 <.plt>

0000000000001910 <gethostname@plt>:
    1910:	ff 25 82 36 20 00    	jmpq   *0x203682(%rip)        # 204f98 <gethostname@GLIBC_2.2.5>
    1916:	68 14 00 00 00       	pushq  $0x14
    191b:	e9 a0 fe ff ff       	jmpq   17c0 <.plt>

0000000000001920 <exit@plt>:
    1920:	ff 25 7a 36 20 00    	jmpq   *0x20367a(%rip)        # 204fa0 <exit@GLIBC_2.2.5>
    1926:	68 15 00 00 00       	pushq  $0x15
    192b:	e9 90 fe ff ff       	jmpq   17c0 <.plt>

0000000000001930 <connect@plt>:
    1930:	ff 25 72 36 20 00    	jmpq   *0x203672(%rip)        # 204fa8 <connect@GLIBC_2.2.5>
    1936:	68 16 00 00 00       	pushq  $0x16
    193b:	e9 80 fe ff ff       	jmpq   17c0 <.plt>

0000000000001940 <__fprintf_chk@plt>:
    1940:	ff 25 6a 36 20 00    	jmpq   *0x20366a(%rip)        # 204fb0 <__fprintf_chk@GLIBC_2.3.4>
    1946:	68 17 00 00 00       	pushq  $0x17
    194b:	e9 70 fe ff ff       	jmpq   17c0 <.plt>

0000000000001950 <sleep@plt>:
    1950:	ff 25 62 36 20 00    	jmpq   *0x203662(%rip)        # 204fb8 <sleep@GLIBC_2.2.5>
    1956:	68 18 00 00 00       	pushq  $0x18
    195b:	e9 60 fe ff ff       	jmpq   17c0 <.plt>

0000000000001960 <__ctype_b_loc@plt>:
    1960:	ff 25 5a 36 20 00    	jmpq   *0x20365a(%rip)        # 204fc0 <__ctype_b_loc@GLIBC_2.3>
    1966:	68 19 00 00 00       	pushq  $0x19
    196b:	e9 50 fe ff ff       	jmpq   17c0 <.plt>

0000000000001970 <__sprintf_chk@plt>:
    1970:	ff 25 52 36 20 00    	jmpq   *0x203652(%rip)        # 204fc8 <__sprintf_chk@GLIBC_2.3.4>
    1976:	68 1a 00 00 00       	pushq  $0x1a
    197b:	e9 40 fe ff ff       	jmpq   17c0 <.plt>

0000000000001980 <socket@plt>:
    1980:	ff 25 4a 36 20 00    	jmpq   *0x20364a(%rip)        # 204fd0 <socket@GLIBC_2.2.5>
    1986:	68 1b 00 00 00       	pushq  $0x1b
    198b:	e9 30 fe ff ff       	jmpq   17c0 <.plt>

Disassembly of section .plt.got:

0000000000001990 <__cxa_finalize@plt>:
    1990:	ff 25 62 36 20 00    	jmpq   *0x203662(%rip)        # 204ff8 <__cxa_finalize@GLIBC_2.2.5>
    1996:	66 90                	xchg   %ax,%ax

Disassembly of section .text:

00000000000019a0 <_start>:
    19a0:	31 ed                	xor    %ebp,%ebp
    19a2:	49 89 d1             	mov    %rdx,%r9
    19a5:	5e                   	pop    %rsi
    19a6:	48 89 e2             	mov    %rsp,%rdx
    19a9:	48 83 e4 f0          	and    $0xfffffffffffffff0,%rsp
    19ad:	50                   	push   %rax
    19ae:	54                   	push   %rsp
    19af:	4c 8d 05 6a 1a 00 00 	lea    0x1a6a(%rip),%r8        # 3420 <__libc_csu_fini>
    19b6:	48 8d 0d f3 19 00 00 	lea    0x19f3(%rip),%rcx        # 33b0 <__libc_csu_init>
    19bd:	48 8d 3d e6 00 00 00 	lea    0xe6(%rip),%rdi        # 1aaa <main>
    19c4:	ff 15 16 36 20 00    	callq  *0x203616(%rip)        # 204fe0 <__libc_start_main@GLIBC_2.2.5>
    19ca:	f4                   	hlt    
    19cb:	0f 1f 44 00 00       	nopl   0x0(%rax,%rax,1)

00000000000019d0 <deregister_tm_clones>:
    19d0:	48 8d 3d a9 3c 20 00 	lea    0x203ca9(%rip),%rdi        # 205680 <stdout@@GLIBC_2.2.5>
    19d7:	55                   	push   %rbp
    19d8:	48 8d 05 a1 3c 20 00 	lea    0x203ca1(%rip),%rax        # 205680 <stdout@@GLIBC_2.2.5>
    19df:	48 39 f8             	cmp    %rdi,%rax
    19e2:	48 89 e5             	mov    %rsp,%rbp
    19e5:	74 19                	je     1a00 <deregister_tm_clones+0x30>
    19e7:	48 8b 05 ea 35 20 00 	mov    0x2035ea(%rip),%rax        # 204fd8 <_ITM_deregisterTMCloneTable>
    19ee:	48 85 c0             	test   %rax,%rax
    19f1:	74 0d                	je     1a00 <deregister_tm_clones+0x30>
    19f3:	5d                   	pop    %rbp
    19f4:	ff e0                	jmpq   *%rax
    19f6:	66 2e 0f 1f 84 00 00 	nopw   %cs:0x0(%rax,%rax,1)
    19fd:	00 00 00 
    1a00:	5d                   	pop    %rbp
    1a01:	c3                   	retq   
    1a02:	0f 1f 40 00          	nopl   0x0(%rax)
    1a06:	66 2e 0f 1f 84 00 00 	nopw   %cs:0x0(%rax,%rax,1)
    1a0d:	00 00 00 

0000000000001a10 <register_tm_clones>:
    1a10:	48 8d 3d 69 3c 20 00 	lea    0x203c69(%rip),%rdi        # 205680 <stdout@@GLIBC_2.2.5>
    1a17:	48 8d 35 62 3c 20 00 	lea    0x203c62(%rip),%rsi        # 205680 <stdout@@GLIBC_2.2.5>
    1a1e:	55                   	push   %rbp
    1a1f:	48 29 fe             	sub    %rdi,%rsi
    1a22:	48 89 e5             	mov    %rsp,%rbp
    1a25:	48 c1 fe 03          	sar    $0x3,%rsi
    1a29:	48 89 f0             	mov    %rsi,%rax
    1a2c:	48 c1 e8 3f          	shr    $0x3f,%rax
    1a30:	48 01 c6             	add    %rax,%rsi
    1a33:	48 d1 fe             	sar    %rsi
    1a36:	74 18                	je     1a50 <register_tm_clones+0x40>
    1a38:	48 8b 05 b1 35 20 00 	mov    0x2035b1(%rip),%rax        # 204ff0 <_ITM_registerTMCloneTable>
    1a3f:	48 85 c0             	test   %rax,%rax
    1a42:	74 0c                	je     1a50 <register_tm_clones+0x40>
    1a44:	5d                   	pop    %rbp
    1a45:	ff e0                	jmpq   *%rax
    1a47:	66 0f 1f 84 00 00 00 	nopw   0x0(%rax,%rax,1)
    1a4e:	00 00 
    1a50:	5d                   	pop    %rbp
    1a51:	c3                   	retq   
    1a52:	0f 1f 40 00          	nopl   0x0(%rax)
    1a56:	66 2e 0f 1f 84 00 00 	nopw   %cs:0x0(%rax,%rax,1)
    1a5d:	00 00 00 

0000000000001a60 <__do_global_dtors_aux>:
    1a60:	80 3d 41 3c 20 00 00 	cmpb   $0x0,0x203c41(%rip)        # 2056a8 <completed.7698>
    1a67:	75 2f                	jne    1a98 <__do_global_dtors_aux+0x38>
    1a69:	48 83 3d 87 35 20 00 	cmpq   $0x0,0x203587(%rip)        # 204ff8 <__cxa_finalize@GLIBC_2.2.5>
    1a70:	00 
    1a71:	55                   	push   %rbp
    1a72:	48 89 e5             	mov    %rsp,%rbp
    1a75:	74 0c                	je     1a83 <__do_global_dtors_aux+0x23>
    1a77:	48 8b 3d 8a 35 20 00 	mov    0x20358a(%rip),%rdi        # 205008 <__dso_handle>
    1a7e:	e8 0d ff ff ff       	callq  1990 <__cxa_finalize@plt>
    1a83:	e8 48 ff ff ff       	callq  19d0 <deregister_tm_clones>
    1a88:	c6 05 19 3c 20 00 01 	movb   $0x1,0x203c19(%rip)        # 2056a8 <completed.7698>
    1a8f:	5d                   	pop    %rbp
    1a90:	c3                   	retq   
    1a91:	0f 1f 80 00 00 00 00 	nopl   0x0(%rax)
    1a98:	f3 c3                	repz retq 
    1a9a:	66 0f 1f 44 00 00    	nopw   0x0(%rax,%rax,1)

0000000000001aa0 <frame_dummy>:
    1aa0:	55                   	push   %rbp
    1aa1:	48 89 e5             	mov    %rsp,%rbp
    1aa4:	5d                   	pop    %rbp
    1aa5:	e9 66 ff ff ff       	jmpq   1a10 <register_tm_clones>

0000000000001aaa <main>:
    1aaa:	53                   	push   %rbx
    1aab:	83 ff 01             	cmp    $0x1,%edi
    1aae:	0f 84 f8 00 00 00    	je     1bac <main+0x102>
    1ab4:	48 89 f3             	mov    %rsi,%rbx
    1ab7:	83 ff 02             	cmp    $0x2,%edi
    1aba:	0f 85 21 01 00 00    	jne    1be1 <main+0x137>
    1ac0:	48 8b 7e 08          	mov    0x8(%rsi),%rdi
    1ac4:	48 8d 35 79 19 00 00 	lea    0x1979(%rip),%rsi        # 3444 <_IO_stdin_used+0x4>
    1acb:	e8 30 fe ff ff       	callq  1900 <fopen@plt>
    1ad0:	48 89 05 d9 3b 20 00 	mov    %rax,0x203bd9(%rip)        # 2056b0 <infile>
    1ad7:	48 85 c0             	test   %rax,%rax
    1ada:	0f 84 df 00 00 00    	je     1bbf <main+0x115>
    1ae0:	e8 ca 07 00 00       	callq  22af <initialize_bomb>
    1ae5:	48 8d 3d dc 19 00 00 	lea    0x19dc(%rip),%rdi        # 34c8 <_IO_stdin_used+0x88>
    1aec:	e8 2f fd ff ff       	callq  1820 <puts@plt>
    1af1:	48 8d 3d 10 1a 00 00 	lea    0x1a10(%rip),%rdi        # 3508 <_IO_stdin_used+0xc8>
    1af8:	e8 23 fd ff ff       	callq  1820 <puts@plt>
    1afd:	e8 c7 0a 00 00       	callq  25c9 <read_line>
    1b02:	48 89 c7             	mov    %rax,%rdi
    1b05:	e8 fa 00 00 00       	callq  1c04 <phase_1>
    1b0a:	e8 fe 0b 00 00       	callq  270d <phase_defused>
    1b0f:	48 8d 3d 22 1a 00 00 	lea    0x1a22(%rip),%rdi        # 3538 <_IO_stdin_used+0xf8>
    1b16:	e8 05 fd ff ff       	callq  1820 <puts@plt>
    1b1b:	e8 a9 0a 00 00       	callq  25c9 <read_line>
    1b20:	48 89 c7             	mov    %rax,%rdi
    1b23:	e8 9e 01 00 00       	callq  1cc6 <phase_2>
    1b28:	e8 e0 0b 00 00       	callq  270d <phase_defused>
    1b2d:	48 8d 3d 49 19 00 00 	lea    0x1949(%rip),%rdi        # 347d <_IO_stdin_used+0x3d>
    1b34:	e8 e7 fc ff ff       	callq  1820 <puts@plt>
    1b39:	e8 8b 0a 00 00       	callq  25c9 <read_line>
    1b3e:	48 89 c7             	mov    %rax,%rdi
    1b41:	e8 fd 01 00 00       	callq  1d43 <phase_3>
    1b46:	e8 c2 0b 00 00       	callq  270d <phase_defused>
    1b4b:	48 8d 3d 49 19 00 00 	lea    0x1949(%rip),%rdi        # 349b <_IO_stdin_used+0x5b>
    1b52:	e8 c9 fc ff ff       	callq  1820 <puts@plt>
    1b57:	e8 6d 0a 00 00       	callq  25c9 <read_line>
    1b5c:	48 89 c7             	mov    %rax,%rdi
    1b5f:	e8 ce 02 00 00       	callq  1e32 <phase_4>
    1b64:	e8 a4 0b 00 00       	callq  270d <phase_defused>
    1b69:	48 8d 3d f8 19 00 00 	lea    0x19f8(%rip),%rdi        # 3568 <_IO_stdin_used+0x128>
    1b70:	e8 ab fc ff ff       	callq  1820 <puts@plt>
    1b75:	e8 4f 0a 00 00       	callq  25c9 <read_line>
    1b7a:	48 89 c7             	mov    %rax,%rdi
    1b7d:	e8 47 03 00 00       	callq  1ec9 <phase_5>
    1b82:	e8 86 0b 00 00       	callq  270d <phase_defused>
    1b87:	48 8d 3d 1c 19 00 00 	lea    0x191c(%rip),%rdi        # 34aa <_IO_stdin_used+0x6a>
    1b8e:	e8 8d fc ff ff       	callq  1820 <puts@plt>
    1b93:	e8 31 0a 00 00       	callq  25c9 <read_line>
    1b98:	48 89 c7             	mov    %rax,%rdi
    1b9b:	e8 97 03 00 00       	callq  1f37 <phase_6>
    1ba0:	e8 68 0b 00 00       	callq  270d <phase_defused>
    1ba5:	b8 00 00 00 00       	mov    $0x0,%eax
    1baa:	5b                   	pop    %rbx
    1bab:	c3                   	retq   
    1bac:	48 8b 05 dd 3a 20 00 	mov    0x203add(%rip),%rax        # 205690 <stdin@@GLIBC_2.2.5>
    1bb3:	48 89 05 f6 3a 20 00 	mov    %rax,0x203af6(%rip)        # 2056b0 <infile>
    1bba:	e9 21 ff ff ff       	jmpq   1ae0 <main+0x36>
    1bbf:	48 8b 4b 08          	mov    0x8(%rbx),%rcx
    1bc3:	48 8b 13             	mov    (%rbx),%rdx
    1bc6:	48 8d 35 79 18 00 00 	lea    0x1879(%rip),%rsi        # 3446 <_IO_stdin_used+0x6>
    1bcd:	bf 01 00 00 00       	mov    $0x1,%edi
    1bd2:	e8 19 fd ff ff       	callq  18f0 <__printf_chk@plt>
    1bd7:	bf 08 00 00 00       	mov    $0x8,%edi
    1bdc:	e8 3f fd ff ff       	callq  1920 <exit@plt>
    1be1:	48 8b 16             	mov    (%rsi),%rdx
    1be4:	48 8d 35 78 18 00 00 	lea    0x1878(%rip),%rsi        # 3463 <_IO_stdin_used+0x23>
    1beb:	bf 01 00 00 00       	mov    $0x1,%edi
    1bf0:	b8 00 00 00 00       	mov    $0x0,%eax
    1bf5:	e8 f6 fc ff ff       	callq  18f0 <__printf_chk@plt>
    1bfa:	bf 08 00 00 00       	mov    $0x8,%edi
    1bff:	e8 1c fd ff ff       	callq  1920 <exit@plt>

0000000000001c04 <phase_1>:
    1c04:	55                   	push   %rbp
    1c05:	53                   	push   %rbx
    1c06:	48 83 ec 68          	sub    $0x68,%rsp
    1c0a:	48 89 fd             	mov    %rdi,%rbp
    1c0d:	64 48 8b 04 25 28 00 	mov    %fs:0x28,%rax
    1c14:	00 00 
    1c16:	48 89 44 24 58       	mov    %rax,0x58(%rsp)
    1c1b:	31 c0                	xor    %eax,%eax
    1c1d:	48 b8 4d 79 20 74 65 	movabs $0x207478657420794d,%rax
    1c24:	78 74 20 
    1c27:	ba 69 73 20 00       	mov    $0x207369,%edx
    1c2c:	48 89 04 24          	mov    %rax,(%rsp)
    1c30:	48 89 54 24 08       	mov    %rdx,0x8(%rsp)
    1c35:	48 c7 44 24 10 00 00 	movq   $0x0,0x10(%rsp)
    1c3c:	00 00 
    1c3e:	48 c7 44 24 18 00 00 	movq   $0x0,0x18(%rsp)
    1c45:	00 00 
    1c47:	48 c7 44 24 20 00 00 	movq   $0x0,0x20(%rsp)
    1c4e:	00 00 
    1c50:	48 c7 44 24 28 00 00 	movq   $0x0,0x28(%rsp)
    1c57:	00 00 
    1c59:	48 c7 44 24 30 00 00 	movq   $0x0,0x30(%rsp)
    1c60:	00 00 
    1c62:	48 c7 44 24 38 00 00 	movq   $0x0,0x38(%rsp)
    1c69:	00 00 
    1c6b:	48 c7 44 24 40 00 00 	movq   $0x0,0x40(%rsp)
    1c72:	00 00 
    1c74:	48 c7 44 24 48 00 00 	movq   $0x0,0x48(%rsp)
    1c7b:	00 00 
    1c7d:	48 89 e3             	mov    %rsp,%rbx
    1c80:	ba 50 00 00 00       	mov    $0x50,%edx
    1c85:	48 8d 35 04 19 00 00 	lea    0x1904(%rip),%rsi        # 3590 <_IO_stdin_used+0x150>
    1c8c:	48 89 df             	mov    %rbx,%rdi
    1c8f:	e8 3c fb ff ff       	callq  17d0 <__strcat_chk@plt>
    1c94:	48 89 de             	mov    %rbx,%rsi
    1c97:	48 89 ef             	mov    %rbp,%rdi
    1c9a:	e8 8d 05 00 00       	callq  222c <strings_not_equal>
    1c9f:	85 c0                	test   %eax,%eax
    1ca1:	75 17                	jne    1cba <phase_1+0xb6>
    1ca3:	48 8b 44 24 58       	mov    0x58(%rsp),%rax
    1ca8:	64 48 33 04 25 28 00 	xor    %fs:0x28,%rax
    1caf:	00 00 
    1cb1:	75 0e                	jne    1cc1 <phase_1+0xbd>
    1cb3:	48 83 c4 68          	add    $0x68,%rsp
    1cb7:	5b                   	pop    %rbx
    1cb8:	5d                   	pop    %rbp
    1cb9:	c3                   	retq   
    1cba:	e8 8d 08 00 00       	callq  254c <explode_bomb>
    1cbf:	eb e2                	jmp    1ca3 <phase_1+0x9f>
    1cc1:	e8 7a fb ff ff       	callq  1840 <__stack_chk_fail@plt>

0000000000001cc6 <phase_2>:
    1cc6:	55                   	push   %rbp
    1cc7:	53                   	push   %rbx
    1cc8:	48 83 ec 28          	sub    $0x28,%rsp
    1ccc:	64 48 8b 04 25 28 00 	mov    %fs:0x28,%rax
    1cd3:	00 00 
    1cd5:	48 89 44 24 18       	mov    %rax,0x18(%rsp)
    1cda:	31 c0                	xor    %eax,%eax
    1cdc:	48 89 e6             	mov    %rsp,%rsi
    1cdf:	e8 a4 08 00 00       	callq  2588 <read_six_numbers>
    1ce4:	83 3c 24 00          	cmpl   $0x0,(%rsp)
    1ce8:	78 11                	js     1cfb <phase_2+0x35>
    1cea:	83 7c 24 04 00       	cmpl   $0x0,0x4(%rsp)
    1cef:	78 11                	js     1d02 <phase_2+0x3c>
    1cf1:	bb 02 00 00 00       	mov    $0x2,%ebx
    1cf6:	48 89 e5             	mov    %rsp,%rbp
    1cf9:	eb 18                	jmp    1d13 <phase_2+0x4d>
    1cfb:	e8 4c 08 00 00       	callq  254c <explode_bomb>
    1d00:	eb e8                	jmp    1cea <phase_2+0x24>
    1d02:	e8 45 08 00 00       	callq  254c <explode_bomb>
    1d07:	eb e8                	jmp    1cf1 <phase_2+0x2b>
    1d09:	48 83 c3 01          	add    $0x1,%rbx
    1d0d:	48 83 fb 06          	cmp    $0x6,%rbx
    1d11:	74 14                	je     1d27 <phase_2+0x61>
    1d13:	89 d8                	mov    %ebx,%eax
    1d15:	0f af 44 9d f8       	imul   -0x8(%rbp,%rbx,4),%eax
    1d1a:	39 44 9d 00          	cmp    %eax,0x0(%rbp,%rbx,4)
    1d1e:	74 e9                	je     1d09 <phase_2+0x43>
    1d20:	e8 27 08 00 00       	callq  254c <explode_bomb>
    1d25:	eb e2                	jmp    1d09 <phase_2+0x43>
    1d27:	48 8b 44 24 18       	mov    0x18(%rsp),%rax
    1d2c:	64 48 33 04 25 28 00 	xor    %fs:0x28,%rax
    1d33:	00 00 
    1d35:	75 07                	jne    1d3e <phase_2+0x78>
    1d37:	48 83 c4 28          	add    $0x28,%rsp
    1d3b:	5b                   	pop    %rbx
    1d3c:	5d                   	pop    %rbp
    1d3d:	c3                   	retq   
    1d3e:	e8 fd fa ff ff       	callq  1840 <__stack_chk_fail@plt>

0000000000001d43 <phase_3>:
    1d43:	48 83 ec 28          	sub    $0x28,%rsp
    1d47:	64 48 8b 04 25 28 00 	mov    %fs:0x28,%rax
    1d4e:	00 00 
    1d50:	48 89 44 24 18       	mov    %rax,0x18(%rsp)
    1d55:	31 c0                	xor    %eax,%eax
    1d57:	48 8d 4c 24 10       	lea    0x10(%rsp),%rcx
    1d5c:	48 8d 54 24 0c       	lea    0xc(%rsp),%rdx
    1d61:	4c 8d 44 24 14       	lea    0x14(%rsp),%r8
    1d66:	48 8d 35 3d 1b 00 00 	lea    0x1b3d(%rip),%rsi        # 38aa <array.3438+0x28a>
    1d6d:	e8 6e fb ff ff       	callq  18e0 <__isoc99_sscanf@plt>
    1d72:	83 f8 02             	cmp    $0x2,%eax
    1d75:	7e 1b                	jle    1d92 <phase_3+0x4f>
    1d77:	83 7c 24 0c 07       	cmpl   $0x7,0xc(%rsp)
    1d7c:	77 4c                	ja     1dca <phase_3+0x87>
    1d7e:	8b 44 24 0c          	mov    0xc(%rsp),%eax
    1d82:	48 8d 15 77 18 00 00 	lea    0x1877(%rip),%rdx        # 3600 <_IO_stdin_used+0x1c0>
    1d89:	48 63 04 82          	movslq (%rdx,%rax,4),%rax
    1d8d:	48 01 d0             	add    %rdx,%rax
    1d90:	ff e0                	jmpq   *%rax
    1d92:	e8 b5 07 00 00       	callq  254c <explode_bomb>
    1d97:	eb de                	jmp    1d77 <phase_3+0x34>
    1d99:	be 8f 00 00 00       	mov    $0x8f,%esi
    1d9e:	eb 3b                	jmp    1ddb <phase_3+0x98>
    1da0:	be 03 01 00 00       	mov    $0x103,%esi
    1da5:	eb 34                	jmp    1ddb <phase_3+0x98>
    1da7:	be a1 02 00 00       	mov    $0x2a1,%esi
    1dac:	eb 2d                	jmp    1ddb <phase_3+0x98>
    1dae:	be 14 01 00 00       	mov    $0x114,%esi
    1db3:	eb 26                	jmp    1ddb <phase_3+0x98>
    1db5:	be db 02 00 00       	mov    $0x2db,%esi
    1dba:	eb 1f                	jmp    1ddb <phase_3+0x98>
    1dbc:	be 66 00 00 00       	mov    $0x66,%esi
    1dc1:	eb 18                	jmp    1ddb <phase_3+0x98>
    1dc3:	be 3e 00 00 00       	mov    $0x3e,%esi
    1dc8:	eb 11                	jmp    1ddb <phase_3+0x98>
    1dca:	e8 7d 07 00 00       	callq  254c <explode_bomb>
    1dcf:	be 00 00 00 00       	mov    $0x0,%esi
    1dd4:	eb 05                	jmp    1ddb <phase_3+0x98>
    1dd6:	be 26 03 00 00       	mov    $0x326,%esi
    1ddb:	8b 54 24 14          	mov    0x14(%rsp),%edx
    1ddf:	8b 7c 24 10          	mov    0x10(%rsp),%edi
    1de3:	e8 d1 03 00 00       	callq  21b9 <check_multiplication_equal>
    1de8:	85 c0                	test   %eax,%eax
    1dea:	74 15                	je     1e01 <phase_3+0xbe>
    1dec:	48 8b 44 24 18       	mov    0x18(%rsp),%rax
    1df1:	64 48 33 04 25 28 00 	xor    %fs:0x28,%rax
    1df8:	00 00 
    1dfa:	75 0c                	jne    1e08 <phase_3+0xc5>
    1dfc:	48 83 c4 28          	add    $0x28,%rsp
    1e00:	c3                   	retq   
    1e01:	e8 46 07 00 00       	callq  254c <explode_bomb>
    1e06:	eb e4                	jmp    1dec <phase_3+0xa9>
    1e08:	e8 33 fa ff ff       	callq  1840 <__stack_chk_fail@plt>

0000000000001e0d <func4>:
    1e0d:	89 f0                	mov    %esi,%eax
    1e0f:	39 f7                	cmp    %esi,%edi
    1e11:	74 1d                	je     1e30 <func4+0x23>
    1e13:	48 83 ec 08          	sub    $0x8,%rsp
    1e17:	39 f7                	cmp    %esi,%edi
    1e19:	7f 0c                	jg     1e27 <func4+0x1a>
    1e1b:	29 fe                	sub    %edi,%esi
    1e1d:	e8 eb ff ff ff       	callq  1e0d <func4>
    1e22:	48 83 c4 08          	add    $0x8,%rsp
    1e26:	c3                   	retq   
    1e27:	29 f7                	sub    %esi,%edi
    1e29:	e8 df ff ff ff       	callq  1e0d <func4>
    1e2e:	eb f2                	jmp    1e22 <func4+0x15>
    1e30:	f3 c3                	repz retq 

0000000000001e32 <phase_4>:
    1e32:	53                   	push   %rbx
    1e33:	48 83 ec 10          	sub    $0x10,%rsp
    1e37:	64 48 8b 04 25 28 00 	mov    %fs:0x28,%rax
    1e3e:	00 00 
    1e40:	48 89 44 24 08       	mov    %rax,0x8(%rsp)
    1e45:	31 c0                	xor    %eax,%eax
    1e47:	48 8d 4c 24 04       	lea    0x4(%rsp),%rcx
    1e4c:	48 89 e2             	mov    %rsp,%rdx
    1e4f:	48 8d 35 57 1a 00 00 	lea    0x1a57(%rip),%rsi        # 38ad <array.3438+0x28d>
    1e56:	e8 85 fa ff ff       	callq  18e0 <__isoc99_sscanf@plt>
    1e5b:	83 f8 02             	cmp    $0x2,%eax
    1e5e:	75 0d                	jne    1e6d <phase_4+0x3b>
    1e60:	83 3c 24 01          	cmpl   $0x1,(%rsp)
    1e64:	7e 07                	jle    1e6d <phase_4+0x3b>
    1e66:	83 7c 24 04 01       	cmpl   $0x1,0x4(%rsp)
    1e6b:	7f 05                	jg     1e72 <phase_4+0x40>
    1e6d:	e8 da 06 00 00       	callq  254c <explode_bomb>
    1e72:	81 3c 24 40 01 00 00 	cmpl   $0x140,(%rsp)
    1e79:	7f 0a                	jg     1e85 <phase_4+0x53>
    1e7b:	81 7c 24 04 40 01 00 	cmpl   $0x140,0x4(%rsp)
    1e82:	00 
    1e83:	7e 05                	jle    1e8a <phase_4+0x58>
    1e85:	e8 c2 06 00 00       	callq  254c <explode_bomb>
    1e8a:	8b 3c 24             	mov    (%rsp),%edi
    1e8d:	8b 74 24 04          	mov    0x4(%rsp),%esi
    1e91:	89 fb                	mov    %edi,%ebx
    1e93:	0f af de             	imul   %esi,%ebx
    1e96:	e8 72 ff ff ff       	callq  1e0d <func4>
    1e9b:	89 c1                	mov    %eax,%ecx
    1e9d:	89 d8                	mov    %ebx,%eax
    1e9f:	99                   	cltd   
    1ea0:	f7 f9                	idiv   %ecx
    1ea2:	3d 41 01 00 00       	cmp    $0x141,%eax
    1ea7:	74 05                	je     1eae <phase_4+0x7c>
    1ea9:	e8 9e 06 00 00       	callq  254c <explode_bomb>
    1eae:	48 8b 44 24 08       	mov    0x8(%rsp),%rax
    1eb3:	64 48 33 04 25 28 00 	xor    %fs:0x28,%rax
    1eba:	00 00 
    1ebc:	75 06                	jne    1ec4 <phase_4+0x92>
    1ebe:	48 83 c4 10          	add    $0x10,%rsp
    1ec2:	5b                   	pop    %rbx
    1ec3:	c3                   	retq   
    1ec4:	e8 77 f9 ff ff       	callq  1840 <__stack_chk_fail@plt>

0000000000001ec9 <phase_5>:
    1ec9:	41 55                	push   %r13
    1ecb:	41 54                	push   %r12
    1ecd:	55                   	push   %rbp
    1ece:	53                   	push   %rbx
    1ecf:	48 83 ec 08          	sub    $0x8,%rsp
    1ed3:	49 89 fd             	mov    %rdi,%r13
    1ed6:	e8 b1 02 00 00       	callq  218c <string_length>
    1edb:	83 f8 06             	cmp    $0x6,%eax
    1ede:	75 10                	jne    1ef0 <phase_5+0x27>
    1ee0:	4c 89 eb             	mov    %r13,%rbx
    1ee3:	49 83 c5 05          	add    $0x5,%r13
    1ee7:	4c 8d 25 32 17 00 00 	lea    0x1732(%rip),%r12        # 3620 <array.3438>
    1eee:	eb 10                	jmp    1f00 <phase_5+0x37>
    1ef0:	e8 57 06 00 00       	callq  254c <explode_bomb>
    1ef5:	eb e9                	jmp    1ee0 <phase_5+0x17>
    1ef7:	48 83 c3 01          	add    $0x1,%rbx
    1efb:	4c 39 eb             	cmp    %r13,%rbx
    1efe:	74 2c                	je     1f2c <phase_5+0x63>
    1f00:	0f be 7b 01          	movsbl 0x1(%rbx),%edi
    1f04:	e8 8a 03 00 00       	callq  2293 <from_char_to_int>
    1f09:	89 c5                	mov    %eax,%ebp
    1f0b:	0f be 3b             	movsbl (%rbx),%edi
    1f0e:	e8 80 03 00 00       	callq  2293 <from_char_to_int>
    1f13:	83 e5 0f             	and    $0xf,%ebp
    1f16:	89 c2                	mov    %eax,%edx
    1f18:	83 e2 0f             	and    $0xf,%edx
    1f1b:	41 8b 04 94          	mov    (%r12,%rdx,4),%eax
    1f1f:	41 39 04 ac          	cmp    %eax,(%r12,%rbp,4)
    1f23:	7d d2                	jge    1ef7 <phase_5+0x2e>
    1f25:	e8 22 06 00 00       	callq  254c <explode_bomb>
    1f2a:	eb cb                	jmp    1ef7 <phase_5+0x2e>
    1f2c:	48 83 c4 08          	add    $0x8,%rsp
    1f30:	5b                   	pop    %rbx
    1f31:	5d                   	pop    %rbp
    1f32:	41 5c                	pop    %r12
    1f34:	41 5d                	pop    %r13
    1f36:	c3                   	retq   

0000000000001f37 <phase_6>:
    1f37:	41 55                	push   %r13
    1f39:	41 54                	push   %r12
    1f3b:	55                   	push   %rbp
    1f3c:	53                   	push   %rbx
    1f3d:	48 83 ec 68          	sub    $0x68,%rsp
    1f41:	64 48 8b 04 25 28 00 	mov    %fs:0x28,%rax
    1f48:	00 00 
    1f4a:	48 89 44 24 58       	mov    %rax,0x58(%rsp)
    1f4f:	31 c0                	xor    %eax,%eax
    1f51:	49 89 e4             	mov    %rsp,%r12
    1f54:	4c 89 e6             	mov    %r12,%rsi
    1f57:	e8 2c 06 00 00       	callq  2588 <read_six_numbers>
    1f5c:	41 bd 00 00 00 00    	mov    $0x0,%r13d
    1f62:	eb 25                	jmp    1f89 <phase_6+0x52>
    1f64:	e8 e3 05 00 00       	callq  254c <explode_bomb>
    1f69:	eb 2d                	jmp    1f98 <phase_6+0x61>
    1f6b:	83 c3 01             	add    $0x1,%ebx
    1f6e:	83 fb 05             	cmp    $0x5,%ebx
    1f71:	7f 12                	jg     1f85 <phase_6+0x4e>
    1f73:	48 63 c3             	movslq %ebx,%rax
    1f76:	8b 04 84             	mov    (%rsp,%rax,4),%eax
    1f79:	39 45 00             	cmp    %eax,0x0(%rbp)
    1f7c:	75 ed                	jne    1f6b <phase_6+0x34>
    1f7e:	e8 c9 05 00 00       	callq  254c <explode_bomb>
    1f83:	eb e6                	jmp    1f6b <phase_6+0x34>
    1f85:	49 83 c4 04          	add    $0x4,%r12
    1f89:	4c 89 e5             	mov    %r12,%rbp
    1f8c:	41 8b 04 24          	mov    (%r12),%eax
    1f90:	83 e8 01             	sub    $0x1,%eax
    1f93:	83 f8 05             	cmp    $0x5,%eax
    1f96:	77 cc                	ja     1f64 <phase_6+0x2d>
    1f98:	41 83 c5 01          	add    $0x1,%r13d
    1f9c:	41 83 fd 06          	cmp    $0x6,%r13d
    1fa0:	74 35                	je     1fd7 <phase_6+0xa0>
    1fa2:	44 89 eb             	mov    %r13d,%ebx
    1fa5:	eb cc                	jmp    1f73 <phase_6+0x3c>
    1fa7:	48 8b 52 08          	mov    0x8(%rdx),%rdx
    1fab:	83 c0 01             	add    $0x1,%eax
    1fae:	39 c8                	cmp    %ecx,%eax
    1fb0:	75 f5                	jne    1fa7 <phase_6+0x70>
    1fb2:	48 89 54 f4 20       	mov    %rdx,0x20(%rsp,%rsi,8)
    1fb7:	48 83 c6 01          	add    $0x1,%rsi
    1fbb:	48 83 fe 06          	cmp    $0x6,%rsi
    1fbf:	74 1d                	je     1fde <phase_6+0xa7>
    1fc1:	8b 0c b4             	mov    (%rsp,%rsi,4),%ecx
    1fc4:	b8 01 00 00 00       	mov    $0x1,%eax
    1fc9:	48 8d 15 60 32 20 00 	lea    0x203260(%rip),%rdx        # 205230 <node1>
    1fd0:	83 f9 01             	cmp    $0x1,%ecx
    1fd3:	7f d2                	jg     1fa7 <phase_6+0x70>
    1fd5:	eb db                	jmp    1fb2 <phase_6+0x7b>
    1fd7:	be 00 00 00 00       	mov    $0x0,%esi
    1fdc:	eb e3                	jmp    1fc1 <phase_6+0x8a>
    1fde:	48 8b 5c 24 20       	mov    0x20(%rsp),%rbx
    1fe3:	48 8b 44 24 28       	mov    0x28(%rsp),%rax
    1fe8:	48 89 43 08          	mov    %rax,0x8(%rbx)
    1fec:	48 8b 54 24 30       	mov    0x30(%rsp),%rdx
    1ff1:	48 89 50 08          	mov    %rdx,0x8(%rax)
    1ff5:	48 8b 44 24 38       	mov    0x38(%rsp),%rax
    1ffa:	48 89 42 08          	mov    %rax,0x8(%rdx)
    1ffe:	48 8b 54 24 40       	mov    0x40(%rsp),%rdx
    2003:	48 89 50 08          	mov    %rdx,0x8(%rax)
    2007:	48 8b 44 24 48       	mov    0x48(%rsp),%rax
    200c:	48 89 42 08          	mov    %rax,0x8(%rdx)
    2010:	48 c7 40 08 00 00 00 	movq   $0x0,0x8(%rax)
    2017:	00 
    2018:	bd 00 00 00 00       	mov    $0x0,%ebp
    201d:	eb 16                	jmp    2035 <phase_6+0xfe>
    201f:	48 8b 43 08          	mov    0x8(%rbx),%rax
    2023:	8b 00                	mov    (%rax),%eax
    2025:	39 03                	cmp    %eax,(%rbx)
    2027:	7f 23                	jg     204c <phase_6+0x115>
    2029:	48 8b 5b 08          	mov    0x8(%rbx),%rbx
    202d:	83 c5 01             	add    $0x1,%ebp
    2030:	83 fd 05             	cmp    $0x5,%ebp
    2033:	74 1e                	je     2053 <phase_6+0x11c>
    2035:	40 f6 c5 01          	test   $0x1,%bpl
    2039:	75 e4                	jne    201f <phase_6+0xe8>
    203b:	48 8b 43 08          	mov    0x8(%rbx),%rax
    203f:	8b 00                	mov    (%rax),%eax
    2041:	39 03                	cmp    %eax,(%rbx)
    2043:	7d e4                	jge    2029 <phase_6+0xf2>
    2045:	e8 02 05 00 00       	callq  254c <explode_bomb>
    204a:	eb dd                	jmp    2029 <phase_6+0xf2>
    204c:	e8 fb 04 00 00       	callq  254c <explode_bomb>
    2051:	eb d6                	jmp    2029 <phase_6+0xf2>
    2053:	48 8b 44 24 58       	mov    0x58(%rsp),%rax
    2058:	64 48 33 04 25 28 00 	xor    %fs:0x28,%rax
    205f:	00 00 
    2061:	75 0b                	jne    206e <phase_6+0x137>
    2063:	48 83 c4 68          	add    $0x68,%rsp
    2067:	5b                   	pop    %rbx
    2068:	5d                   	pop    %rbp
    2069:	41 5c                	pop    %r12
    206b:	41 5d                	pop    %r13
    206d:	c3                   	retq   
    206e:	e8 cd f7 ff ff       	callq  1840 <__stack_chk_fail@plt>

0000000000002073 <fun7>:
    2073:	48 85 ff             	test   %rdi,%rdi
    2076:	74 34                	je     20ac <fun7+0x39>
    2078:	48 83 ec 08          	sub    $0x8,%rsp
    207c:	8b 17                	mov    (%rdi),%edx
    207e:	39 f2                	cmp    %esi,%edx
    2080:	7f 0e                	jg     2090 <fun7+0x1d>
    2082:	b8 00 00 00 00       	mov    $0x0,%eax
    2087:	39 f2                	cmp    %esi,%edx
    2089:	75 12                	jne    209d <fun7+0x2a>
    208b:	48 83 c4 08          	add    $0x8,%rsp
    208f:	c3                   	retq   
    2090:	48 8b 7f 08          	mov    0x8(%rdi),%rdi
    2094:	e8 da ff ff ff       	callq  2073 <fun7>
    2099:	01 c0                	add    %eax,%eax
    209b:	eb ee                	jmp    208b <fun7+0x18>
    209d:	48 8b 7f 10          	mov    0x10(%rdi),%rdi
    20a1:	e8 cd ff ff ff       	callq  2073 <fun7>
    20a6:	8d 44 00 01          	lea    0x1(%rax,%rax,1),%eax
    20aa:	eb df                	jmp    208b <fun7+0x18>
    20ac:	b8 ff ff ff ff       	mov    $0xffffffff,%eax
    20b1:	c3                   	retq   

00000000000020b2 <secret_phase>:
    20b2:	53                   	push   %rbx
    20b3:	e8 11 05 00 00       	callq  25c9 <read_line>
    20b8:	ba 0a 00 00 00       	mov    $0xa,%edx
    20bd:	be 00 00 00 00       	mov    $0x0,%esi
    20c2:	48 89 c7             	mov    %rax,%rdi
    20c5:	e8 f6 f7 ff ff       	callq  18c0 <strtol@plt>
    20ca:	48 89 c3             	mov    %rax,%rbx
    20cd:	8d 40 ff             	lea    -0x1(%rax),%eax
    20d0:	3d e8 03 00 00       	cmp    $0x3e8,%eax
    20d5:	77 2b                	ja     2102 <secret_phase+0x50>
    20d7:	89 de                	mov    %ebx,%esi
    20d9:	48 8d 3d 70 30 20 00 	lea    0x203070(%rip),%rdi        # 205150 <n1>
    20e0:	e8 8e ff ff ff       	callq  2073 <fun7>
    20e5:	83 f8 02             	cmp    $0x2,%eax
    20e8:	74 05                	je     20ef <secret_phase+0x3d>
    20ea:	e8 5d 04 00 00       	callq  254c <explode_bomb>
    20ef:	48 8d 3d ca 14 00 00 	lea    0x14ca(%rip),%rdi        # 35c0 <_IO_stdin_used+0x180>
    20f6:	e8 25 f7 ff ff       	callq  1820 <puts@plt>
    20fb:	e8 0d 06 00 00       	callq  270d <phase_defused>
    2100:	5b                   	pop    %rbx
    2101:	c3                   	retq   
    2102:	e8 45 04 00 00       	callq  254c <explode_bomb>
    2107:	eb ce                	jmp    20d7 <secret_phase+0x25>

0000000000002109 <sig_handler>:
    2109:	48 83 ec 08          	sub    $0x8,%rsp
    210d:	48 8d 3d 4c 15 00 00 	lea    0x154c(%rip),%rdi        # 3660 <array.3438+0x40>
    2114:	e8 07 f7 ff ff       	callq  1820 <puts@plt>
    2119:	bf 03 00 00 00       	mov    $0x3,%edi
    211e:	e8 2d f8 ff ff       	callq  1950 <sleep@plt>
    2123:	48 8d 35 ff 16 00 00 	lea    0x16ff(%rip),%rsi        # 3829 <array.3438+0x209>
    212a:	bf 01 00 00 00       	mov    $0x1,%edi
    212f:	b8 00 00 00 00       	mov    $0x0,%eax
    2134:	e8 b7 f7 ff ff       	callq  18f0 <__printf_chk@plt>
    2139:	48 8b 3d 40 35 20 00 	mov    0x203540(%rip),%rdi        # 205680 <stdout@@GLIBC_2.2.5>
    2140:	e8 8b f7 ff ff       	callq  18d0 <fflush@plt>
    2145:	bf 01 00 00 00       	mov    $0x1,%edi
    214a:	e8 01 f8 ff ff       	callq  1950 <sleep@plt>
    214f:	48 8d 3d db 16 00 00 	lea    0x16db(%rip),%rdi        # 3831 <array.3438+0x211>
    2156:	e8 c5 f6 ff ff       	callq  1820 <puts@plt>
    215b:	bf 10 00 00 00       	mov    $0x10,%edi
    2160:	e8 bb f7 ff ff       	callq  1920 <exit@plt>

0000000000002165 <invalid_phase>:
    2165:	48 83 ec 08          	sub    $0x8,%rsp
    2169:	48 89 fa             	mov    %rdi,%rdx
    216c:	48 8d 35 c6 16 00 00 	lea    0x16c6(%rip),%rsi        # 3839 <array.3438+0x219>
    2173:	bf 01 00 00 00       	mov    $0x1,%edi
    2178:	b8 00 00 00 00       	mov    $0x0,%eax
    217d:	e8 6e f7 ff ff       	callq  18f0 <__printf_chk@plt>
    2182:	bf 08 00 00 00       	mov    $0x8,%edi
    2187:	e8 94 f7 ff ff       	callq  1920 <exit@plt>

000000000000218c <string_length>:
    218c:	80 3f 00             	cmpb   $0x0,(%rdi)
    218f:	74 12                	je     21a3 <string_length+0x17>
    2191:	48 89 fa             	mov    %rdi,%rdx
    2194:	48 83 c2 01          	add    $0x1,%rdx
    2198:	89 d0                	mov    %edx,%eax
    219a:	29 f8                	sub    %edi,%eax
    219c:	80 3a 00             	cmpb   $0x0,(%rdx)
    219f:	75 f3                	jne    2194 <string_length+0x8>
    21a1:	f3 c3                	repz retq 
    21a3:	b8 00 00 00 00       	mov    $0x0,%eax
    21a8:	c3                   	retq   

00000000000021a9 <check_division_equal>:
    21a9:	89 f8                	mov    %edi,%eax
    21ab:	89 d1                	mov    %edx,%ecx
    21ad:	99                   	cltd   
    21ae:	f7 fe                	idiv   %esi
    21b0:	39 c8                	cmp    %ecx,%eax
    21b2:	0f 94 c0             	sete   %al
    21b5:	0f b6 c0             	movzbl %al,%eax
    21b8:	c3                   	retq   

00000000000021b9 <check_multiplication_equal>:
    21b9:	0f af fe             	imul   %esi,%edi
    21bc:	39 d7                	cmp    %edx,%edi
    21be:	0f 94 c0             	sete   %al
    21c1:	0f b6 c0             	movzbl %al,%eax
    21c4:	c3                   	retq   

00000000000021c5 <check_substraction_equal>:
    21c5:	29 f7                	sub    %esi,%edi
    21c7:	39 d7                	cmp    %edx,%edi
    21c9:	0f 94 c0             	sete   %al
    21cc:	0f b6 c0             	movzbl %al,%eax
    21cf:	c3                   	retq   

00000000000021d0 <check_modulus_equal>:
    21d0:	89 f8                	mov    %edi,%eax
    21d2:	89 d1                	mov    %edx,%ecx
    21d4:	99                   	cltd   
    21d5:	f7 fe                	idiv   %esi
    21d7:	39 ca                	cmp    %ecx,%edx
    21d9:	0f 94 c0             	sete   %al
    21dc:	0f b6 c0             	movzbl %al,%eax
    21df:	c3                   	retq   

00000000000021e0 <reverse_string>:
    21e0:	48 89 fe             	mov    %rdi,%rsi
    21e3:	48 85 ff             	test   %rdi,%rdi
    21e6:	74 40                	je     2228 <reverse_string+0x48>
    21e8:	80 3f 00             	cmpb   $0x0,(%rdi)
    21eb:	74 3b                	je     2228 <reverse_string+0x48>
    21ed:	48 c7 c1 ff ff ff ff 	mov    $0xffffffffffffffff,%rcx
    21f4:	b8 00 00 00 00       	mov    $0x0,%eax
    21f9:	f2 ae                	repnz scas %es:(%rdi),%al
    21fb:	48 89 ca             	mov    %rcx,%rdx
    21fe:	48 f7 d2             	not    %rdx
    2201:	48 8d 4c 16 fe       	lea    -0x2(%rsi,%rdx,1),%rcx
    2206:	48 39 ce             	cmp    %rcx,%rsi
    2209:	73 1d                	jae    2228 <reverse_string+0x48>
    220b:	48 89 f2             	mov    %rsi,%rdx
    220e:	0f b6 02             	movzbl (%rdx),%eax
    2211:	32 01                	xor    (%rcx),%al
    2213:	88 02                	mov    %al,(%rdx)
    2215:	32 01                	xor    (%rcx),%al
    2217:	88 01                	mov    %al,(%rcx)
    2219:	30 02                	xor    %al,(%rdx)
    221b:	48 83 c2 01          	add    $0x1,%rdx
    221f:	48 83 e9 01          	sub    $0x1,%rcx
    2223:	48 39 ca             	cmp    %rcx,%rdx
    2226:	72 e6                	jb     220e <reverse_string+0x2e>
    2228:	48 89 f0             	mov    %rsi,%rax
    222b:	c3                   	retq   

000000000000222c <strings_not_equal>:
    222c:	41 54                	push   %r12
    222e:	55                   	push   %rbp
    222f:	53                   	push   %rbx
    2230:	48 89 fb             	mov    %rdi,%rbx
    2233:	48 89 f5             	mov    %rsi,%rbp
    2236:	e8 51 ff ff ff       	callq  218c <string_length>
    223b:	41 89 c4             	mov    %eax,%r12d
    223e:	48 89 ef             	mov    %rbp,%rdi
    2241:	e8 46 ff ff ff       	callq  218c <string_length>
    2246:	ba 01 00 00 00       	mov    $0x1,%edx
    224b:	41 39 c4             	cmp    %eax,%r12d
    224e:	74 07                	je     2257 <strings_not_equal+0x2b>
    2250:	89 d0                	mov    %edx,%eax
    2252:	5b                   	pop    %rbx
    2253:	5d                   	pop    %rbp
    2254:	41 5c                	pop    %r12
    2256:	c3                   	retq   
    2257:	0f b6 03             	movzbl (%rbx),%eax
    225a:	84 c0                	test   %al,%al
    225c:	74 27                	je     2285 <strings_not_equal+0x59>
    225e:	3a 45 00             	cmp    0x0(%rbp),%al
    2261:	75 29                	jne    228c <strings_not_equal+0x60>
    2263:	48 83 c3 01          	add    $0x1,%rbx
    2267:	48 83 c5 01          	add    $0x1,%rbp
    226b:	0f b6 03             	movzbl (%rbx),%eax
    226e:	84 c0                	test   %al,%al
    2270:	74 0c                	je     227e <strings_not_equal+0x52>
    2272:	38 45 00             	cmp    %al,0x0(%rbp)
    2275:	74 ec                	je     2263 <strings_not_equal+0x37>
    2277:	ba 01 00 00 00       	mov    $0x1,%edx
    227c:	eb d2                	jmp    2250 <strings_not_equal+0x24>
    227e:	ba 00 00 00 00       	mov    $0x0,%edx
    2283:	eb cb                	jmp    2250 <strings_not_equal+0x24>
    2285:	ba 00 00 00 00       	mov    $0x0,%edx
    228a:	eb c4                	jmp    2250 <strings_not_equal+0x24>
    228c:	ba 01 00 00 00       	mov    $0x1,%edx
    2291:	eb bd                	jmp    2250 <strings_not_equal+0x24>

0000000000002293 <from_char_to_int>:
    2293:	40 0f be c7          	movsbl %dil,%eax
    2297:	40 80 ff 69          	cmp    $0x69,%dil
    229b:	7f 0e                	jg     22ab <from_char_to_int+0x18>
    229d:	83 ef 33             	sub    $0x33,%edi
    22a0:	8d 50 fd             	lea    -0x3(%rax),%edx
    22a3:	40 80 ff 0a          	cmp    $0xa,%dil
    22a7:	0f 42 c2             	cmovb  %edx,%eax
    22aa:	c3                   	retq   
    22ab:	83 e8 09             	sub    $0x9,%eax
    22ae:	c3                   	retq   

00000000000022af <initialize_bomb>:
    22af:	55                   	push   %rbp
    22b0:	53                   	push   %rbx
    22b1:	48 81 ec 58 20 00 00 	sub    $0x2058,%rsp
    22b8:	64 48 8b 04 25 28 00 	mov    %fs:0x28,%rax
    22bf:	00 00 
    22c1:	48 89 84 24 48 20 00 	mov    %rax,0x2048(%rsp)
    22c8:	00 
    22c9:	31 c0                	xor    %eax,%eax
    22cb:	48 8d 35 37 fe ff ff 	lea    -0x1c9(%rip),%rsi        # 2109 <sig_handler>
    22d2:	bf 02 00 00 00       	mov    $0x2,%edi
    22d7:	e8 b4 f5 ff ff       	callq  1890 <signal@plt>
    22dc:	48 89 e7             	mov    %rsp,%rdi
    22df:	be 40 00 00 00       	mov    $0x40,%esi
    22e4:	e8 27 f6 ff ff       	callq  1910 <gethostname@plt>
    22e9:	85 c0                	test   %eax,%eax
    22eb:	75 45                	jne    2332 <initialize_bomb+0x83>
    22ed:	48 8b 3d 8c 2f 20 00 	mov    0x202f8c(%rip),%rdi        # 205280 <host_table>
    22f4:	48 8d 1d 8d 2f 20 00 	lea    0x202f8d(%rip),%rbx        # 205288 <host_table+0x8>
    22fb:	48 89 e5             	mov    %rsp,%rbp
    22fe:	48 85 ff             	test   %rdi,%rdi
    2301:	74 19                	je     231c <initialize_bomb+0x6d>
    2303:	48 89 ee             	mov    %rbp,%rsi
    2306:	e8 e5 f4 ff ff       	callq  17f0 <strcasecmp@plt>
    230b:	85 c0                	test   %eax,%eax
    230d:	74 5e                	je     236d <initialize_bomb+0xbe>
    230f:	48 83 c3 08          	add    $0x8,%rbx
    2313:	48 8b 7b f8          	mov    -0x8(%rbx),%rdi
    2317:	48 85 ff             	test   %rdi,%rdi
    231a:	75 e7                	jne    2303 <initialize_bomb+0x54>
    231c:	48 8d 3d ad 13 00 00 	lea    0x13ad(%rip),%rdi        # 36d0 <array.3438+0xb0>
    2323:	e8 f8 f4 ff ff       	callq  1820 <puts@plt>
    2328:	bf 08 00 00 00       	mov    $0x8,%edi
    232d:	e8 ee f5 ff ff       	callq  1920 <exit@plt>
    2332:	48 8d 3d 5f 13 00 00 	lea    0x135f(%rip),%rdi        # 3698 <array.3438+0x78>
    2339:	e8 e2 f4 ff ff       	callq  1820 <puts@plt>
    233e:	bf 08 00 00 00       	mov    $0x8,%edi
    2343:	e8 d8 f5 ff ff       	callq  1920 <exit@plt>
    2348:	48 8d 54 24 40       	lea    0x40(%rsp),%rdx
    234d:	48 8d 35 f6 14 00 00 	lea    0x14f6(%rip),%rsi        # 384a <array.3438+0x22a>
    2354:	bf 01 00 00 00       	mov    $0x1,%edi
    2359:	b8 00 00 00 00       	mov    $0x0,%eax
    235e:	e8 8d f5 ff ff       	callq  18f0 <__printf_chk@plt>
    2363:	bf 08 00 00 00       	mov    $0x8,%edi
    2368:	e8 b3 f5 ff ff       	callq  1920 <exit@plt>
    236d:	48 8d 7c 24 40       	lea    0x40(%rsp),%rdi
    2372:	e8 b2 0d 00 00       	callq  3129 <init_driver>
    2377:	85 c0                	test   %eax,%eax
    2379:	78 cd                	js     2348 <initialize_bomb+0x99>
    237b:	48 8b 84 24 48 20 00 	mov    0x2048(%rsp),%rax
    2382:	00 
    2383:	64 48 33 04 25 28 00 	xor    %fs:0x28,%rax
    238a:	00 00 
    238c:	75 0a                	jne    2398 <initialize_bomb+0xe9>
    238e:	48 81 c4 58 20 00 00 	add    $0x2058,%rsp
    2395:	5b                   	pop    %rbx
    2396:	5d                   	pop    %rbp
    2397:	c3                   	retq   
    2398:	e8 a3 f4 ff ff       	callq  1840 <__stack_chk_fail@plt>

000000000000239d <initialize_bomb_solve>:
    239d:	f3 c3                	repz retq 

000000000000239f <blank_line>:
    239f:	55                   	push   %rbp
    23a0:	53                   	push   %rbx
    23a1:	48 83 ec 08          	sub    $0x8,%rsp
    23a5:	48 89 fd             	mov    %rdi,%rbp
    23a8:	0f b6 5d 00          	movzbl 0x0(%rbp),%ebx
    23ac:	84 db                	test   %bl,%bl
    23ae:	74 1e                	je     23ce <blank_line+0x2f>
    23b0:	e8 ab f5 ff ff       	callq  1960 <__ctype_b_loc@plt>
    23b5:	48 83 c5 01          	add    $0x1,%rbp
    23b9:	48 0f be db          	movsbq %bl,%rbx
    23bd:	48 8b 00             	mov    (%rax),%rax
    23c0:	f6 44 58 01 20       	testb  $0x20,0x1(%rax,%rbx,2)
    23c5:	75 e1                	jne    23a8 <blank_line+0x9>
    23c7:	b8 00 00 00 00       	mov    $0x0,%eax
    23cc:	eb 05                	jmp    23d3 <blank_line+0x34>
    23ce:	b8 01 00 00 00       	mov    $0x1,%eax
    23d3:	48 83 c4 08          	add    $0x8,%rsp
    23d7:	5b                   	pop    %rbx
    23d8:	5d                   	pop    %rbp
    23d9:	c3                   	retq   

00000000000023da <skip>:
    23da:	55                   	push   %rbp
    23db:	53                   	push   %rbx
    23dc:	48 83 ec 08          	sub    $0x8,%rsp
    23e0:	48 8d 2d d9 32 20 00 	lea    0x2032d9(%rip),%rbp        # 2056c0 <input_strings>
    23e7:	48 63 05 be 32 20 00 	movslq 0x2032be(%rip),%rax        # 2056ac <num_input_strings>
    23ee:	48 8d 3c 80          	lea    (%rax,%rax,4),%rdi
    23f2:	48 c1 e7 04          	shl    $0x4,%rdi
    23f6:	48 01 ef             	add    %rbp,%rdi
    23f9:	48 8b 15 b0 32 20 00 	mov    0x2032b0(%rip),%rdx        # 2056b0 <infile>
    2400:	be 50 00 00 00       	mov    $0x50,%esi
    2405:	e8 76 f4 ff ff       	callq  1880 <fgets@plt>
    240a:	48 89 c3             	mov    %rax,%rbx
    240d:	48 85 c0             	test   %rax,%rax
    2410:	74 0c                	je     241e <skip+0x44>
    2412:	48 89 c7             	mov    %rax,%rdi
    2415:	e8 85 ff ff ff       	callq  239f <blank_line>
    241a:	85 c0                	test   %eax,%eax
    241c:	75 c9                	jne    23e7 <skip+0xd>
    241e:	48 89 d8             	mov    %rbx,%rax
    2421:	48 83 c4 08          	add    $0x8,%rsp
    2425:	5b                   	pop    %rbx
    2426:	5d                   	pop    %rbp
    2427:	c3                   	retq   

0000000000002428 <send_msg>:
    2428:	53                   	push   %rbx
    2429:	48 81 ec 10 40 00 00 	sub    $0x4010,%rsp
    2430:	41 89 f8             	mov    %edi,%r8d
    2433:	64 48 8b 04 25 28 00 	mov    %fs:0x28,%rax
    243a:	00 00 
    243c:	48 89 84 24 08 40 00 	mov    %rax,0x4008(%rsp)
    2443:	00 
    2444:	31 c0                	xor    %eax,%eax
    2446:	8b 35 60 32 20 00    	mov    0x203260(%rip),%esi        # 2056ac <num_input_strings>
    244c:	8d 46 ff             	lea    -0x1(%rsi),%eax
    244f:	48 98                	cltq   
    2451:	48 8d 14 80          	lea    (%rax,%rax,4),%rdx
    2455:	48 c1 e2 04          	shl    $0x4,%rdx
    2459:	48 8d 05 60 32 20 00 	lea    0x203260(%rip),%rax        # 2056c0 <input_strings>
    2460:	48 01 c2             	add    %rax,%rdx
    2463:	48 c7 c1 ff ff ff ff 	mov    $0xffffffffffffffff,%rcx
    246a:	b8 00 00 00 00       	mov    $0x0,%eax
    246f:	48 89 d7             	mov    %rdx,%rdi
    2472:	f2 ae                	repnz scas %es:(%rdi),%al
    2474:	48 89 c8             	mov    %rcx,%rax
    2477:	48 f7 d0             	not    %rax
    247a:	48 83 c0 63          	add    $0x63,%rax
    247e:	48 3d 00 20 00 00    	cmp    $0x2000,%rax
    2484:	0f 87 86 00 00 00    	ja     2510 <send_msg+0xe8>
    248a:	45 85 c0             	test   %r8d,%r8d
    248d:	4c 8d 0d d0 13 00 00 	lea    0x13d0(%rip),%r9        # 3864 <array.3438+0x244>
    2494:	48 8d 05 d1 13 00 00 	lea    0x13d1(%rip),%rax        # 386c <array.3438+0x24c>
    249b:	4c 0f 44 c8          	cmove  %rax,%r9
    249f:	48 89 e3             	mov    %rsp,%rbx
    24a2:	52                   	push   %rdx
    24a3:	56                   	push   %rsi
    24a4:	44 8b 05 99 2c 20 00 	mov    0x202c99(%rip),%r8d        # 205144 <bomb_id>
    24ab:	48 8d 0d c3 13 00 00 	lea    0x13c3(%rip),%rcx        # 3875 <array.3438+0x255>
    24b2:	ba 00 20 00 00       	mov    $0x2000,%edx
    24b7:	be 01 00 00 00       	mov    $0x1,%esi
    24bc:	48 89 df             	mov    %rbx,%rdi
    24bf:	b8 00 00 00 00       	mov    $0x0,%eax
    24c4:	e8 a7 f4 ff ff       	callq  1970 <__sprintf_chk@plt>
    24c9:	4c 8d 84 24 10 20 00 	lea    0x2010(%rsp),%r8
    24d0:	00 
    24d1:	b9 00 00 00 00       	mov    $0x0,%ecx
    24d6:	48 89 da             	mov    %rbx,%rdx
    24d9:	48 8d 35 40 2c 20 00 	lea    0x202c40(%rip),%rsi        # 205120 <user_password>
    24e0:	48 8d 3d 51 2c 20 00 	lea    0x202c51(%rip),%rdi        # 205138 <userid>
    24e7:	e8 46 0e 00 00       	callq  3332 <driver_post>
    24ec:	48 83 c4 10          	add    $0x10,%rsp
    24f0:	85 c0                	test   %eax,%eax
    24f2:	78 3c                	js     2530 <send_msg+0x108>
    24f4:	48 8b 84 24 08 40 00 	mov    0x4008(%rsp),%rax
    24fb:	00 
    24fc:	64 48 33 04 25 28 00 	xor    %fs:0x28,%rax
    2503:	00 00 
    2505:	75 40                	jne    2547 <send_msg+0x11f>
    2507:	48 81 c4 10 40 00 00 	add    $0x4010,%rsp
    250e:	5b                   	pop    %rbx
    250f:	c3                   	retq   
    2510:	48 8d 35 f1 11 00 00 	lea    0x11f1(%rip),%rsi        # 3708 <array.3438+0xe8>
    2517:	bf 01 00 00 00       	mov    $0x1,%edi
    251c:	b8 00 00 00 00       	mov    $0x0,%eax
    2521:	e8 ca f3 ff ff       	callq  18f0 <__printf_chk@plt>
    2526:	bf 08 00 00 00       	mov    $0x8,%edi
    252b:	e8 f0 f3 ff ff       	callq  1920 <exit@plt>
    2530:	48 8d bc 24 00 20 00 	lea    0x2000(%rsp),%rdi
    2537:	00 
    2538:	e8 e3 f2 ff ff       	callq  1820 <puts@plt>
    253d:	bf 00 00 00 00       	mov    $0x0,%edi
    2542:	e8 d9 f3 ff ff       	callq  1920 <exit@plt>
    2547:	e8 f4 f2 ff ff       	callq  1840 <__stack_chk_fail@plt>

000000000000254c <explode_bomb>:
    254c:	48 83 ec 08          	sub    $0x8,%rsp
    2550:	48 8d 3d 2a 13 00 00 	lea    0x132a(%rip),%rdi        # 3881 <array.3438+0x261>
    2557:	e8 c4 f2 ff ff       	callq  1820 <puts@plt>
    255c:	48 8d 3d 27 13 00 00 	lea    0x1327(%rip),%rdi        # 388a <array.3438+0x26a>
    2563:	e8 b8 f2 ff ff       	callq  1820 <puts@plt>
    2568:	bf 00 00 00 00       	mov    $0x0,%edi
    256d:	e8 b6 fe ff ff       	callq  2428 <send_msg>
    2572:	48 8d 3d b7 11 00 00 	lea    0x11b7(%rip),%rdi        # 3730 <array.3438+0x110>
    2579:	e8 a2 f2 ff ff       	callq  1820 <puts@plt>
    257e:	bf 08 00 00 00       	mov    $0x8,%edi
    2583:	e8 98 f3 ff ff       	callq  1920 <exit@plt>

0000000000002588 <read_six_numbers>:
    2588:	48 83 ec 08          	sub    $0x8,%rsp
    258c:	48 89 f2             	mov    %rsi,%rdx
    258f:	48 8d 4e 04          	lea    0x4(%rsi),%rcx
    2593:	48 8d 46 14          	lea    0x14(%rsi),%rax
    2597:	50                   	push   %rax
    2598:	48 8d 46 10          	lea    0x10(%rsi),%rax
    259c:	50                   	push   %rax
    259d:	4c 8d 4e 0c          	lea    0xc(%rsi),%r9
    25a1:	4c 8d 46 08          	lea    0x8(%rsi),%r8
    25a5:	48 8d 35 f5 12 00 00 	lea    0x12f5(%rip),%rsi        # 38a1 <array.3438+0x281>
    25ac:	b8 00 00 00 00       	mov    $0x0,%eax
    25b1:	e8 2a f3 ff ff       	callq  18e0 <__isoc99_sscanf@plt>
    25b6:	48 83 c4 10          	add    $0x10,%rsp
    25ba:	83 f8 05             	cmp    $0x5,%eax
    25bd:	7e 05                	jle    25c4 <read_six_numbers+0x3c>
    25bf:	48 83 c4 08          	add    $0x8,%rsp
    25c3:	c3                   	retq   
    25c4:	e8 83 ff ff ff       	callq  254c <explode_bomb>

00000000000025c9 <read_line>:
    25c9:	48 83 ec 08          	sub    $0x8,%rsp
    25cd:	b8 00 00 00 00       	mov    $0x0,%eax
    25d2:	e8 03 fe ff ff       	callq  23da <skip>
    25d7:	48 85 c0             	test   %rax,%rax
    25da:	74 6f                	je     264b <read_line+0x82>
    25dc:	8b 35 ca 30 20 00    	mov    0x2030ca(%rip),%esi        # 2056ac <num_input_strings>
    25e2:	48 63 c6             	movslq %esi,%rax
    25e5:	48 8d 14 80          	lea    (%rax,%rax,4),%rdx
    25e9:	48 c1 e2 04          	shl    $0x4,%rdx
    25ed:	48 8d 05 cc 30 20 00 	lea    0x2030cc(%rip),%rax        # 2056c0 <input_strings>
    25f4:	48 01 c2             	add    %rax,%rdx
    25f7:	48 c7 c1 ff ff ff ff 	mov    $0xffffffffffffffff,%rcx
    25fe:	b8 00 00 00 00       	mov    $0x0,%eax
    2603:	48 89 d7             	mov    %rdx,%rdi
    2606:	f2 ae                	repnz scas %es:(%rdi),%al
    2608:	48 f7 d1             	not    %rcx
    260b:	48 83 e9 01          	sub    $0x1,%rcx
    260f:	83 f9 4e             	cmp    $0x4e,%ecx
    2612:	0f 8f ab 00 00 00    	jg     26c3 <read_line+0xfa>
    2618:	83 e9 01             	sub    $0x1,%ecx
    261b:	48 63 c9             	movslq %ecx,%rcx
    261e:	48 63 c6             	movslq %esi,%rax
    2621:	48 8d 04 80          	lea    (%rax,%rax,4),%rax
    2625:	48 c1 e0 04          	shl    $0x4,%rax
    2629:	48 89 c7             	mov    %rax,%rdi
    262c:	48 8d 05 8d 30 20 00 	lea    0x20308d(%rip),%rax        # 2056c0 <input_strings>
    2633:	48 01 f8             	add    %rdi,%rax
    2636:	c6 04 08 00          	movb   $0x0,(%rax,%rcx,1)
    263a:	83 c6 01             	add    $0x1,%esi
    263d:	89 35 69 30 20 00    	mov    %esi,0x203069(%rip)        # 2056ac <num_input_strings>
    2643:	48 89 d0             	mov    %rdx,%rax
    2646:	48 83 c4 08          	add    $0x8,%rsp
    264a:	c3                   	retq   
    264b:	48 8b 05 3e 30 20 00 	mov    0x20303e(%rip),%rax        # 205690 <stdin@@GLIBC_2.2.5>
    2652:	48 39 05 57 30 20 00 	cmp    %rax,0x203057(%rip)        # 2056b0 <infile>
    2659:	74 1b                	je     2676 <read_line+0xad>
    265b:	48 8d 3d 6f 12 00 00 	lea    0x126f(%rip),%rdi        # 38d1 <array.3438+0x2b1>
    2662:	e8 79 f1 ff ff       	callq  17e0 <getenv@plt>
    2667:	48 85 c0             	test   %rax,%rax
    266a:	74 20                	je     268c <read_line+0xc3>
    266c:	bf 00 00 00 00       	mov    $0x0,%edi
    2671:	e8 aa f2 ff ff       	callq  1920 <exit@plt>
    2676:	48 8d 3d 36 12 00 00 	lea    0x1236(%rip),%rdi        # 38b3 <array.3438+0x293>
    267d:	e8 9e f1 ff ff       	callq  1820 <puts@plt>
    2682:	bf 08 00 00 00       	mov    $0x8,%edi
    2687:	e8 94 f2 ff ff       	callq  1920 <exit@plt>
    268c:	48 8b 05 fd 2f 20 00 	mov    0x202ffd(%rip),%rax        # 205690 <stdin@@GLIBC_2.2.5>
    2693:	48 89 05 16 30 20 00 	mov    %rax,0x203016(%rip)        # 2056b0 <infile>
    269a:	b8 00 00 00 00       	mov    $0x0,%eax
    269f:	e8 36 fd ff ff       	callq  23da <skip>
    26a4:	48 85 c0             	test   %rax,%rax
    26a7:	0f 85 2f ff ff ff    	jne    25dc <read_line+0x13>
    26ad:	48 8d 3d ff 11 00 00 	lea    0x11ff(%rip),%rdi        # 38b3 <array.3438+0x293>
    26b4:	e8 67 f1 ff ff       	callq  1820 <puts@plt>
    26b9:	bf 00 00 00 00       	mov    $0x0,%edi
    26be:	e8 5d f2 ff ff       	callq  1920 <exit@plt>
    26c3:	48 8d 3d 12 12 00 00 	lea    0x1212(%rip),%rdi        # 38dc <array.3438+0x2bc>
    26ca:	e8 51 f1 ff ff       	callq  1820 <puts@plt>
    26cf:	8b 05 d7 2f 20 00    	mov    0x202fd7(%rip),%eax        # 2056ac <num_input_strings>
    26d5:	8d 50 01             	lea    0x1(%rax),%edx
    26d8:	89 15 ce 2f 20 00    	mov    %edx,0x202fce(%rip)        # 2056ac <num_input_strings>
    26de:	48 98                	cltq   
    26e0:	48 6b c0 50          	imul   $0x50,%rax,%rax
    26e4:	48 8d 15 d5 2f 20 00 	lea    0x202fd5(%rip),%rdx        # 2056c0 <input_strings>
    26eb:	48 be 2a 2a 2a 74 72 	movabs $0x636e7572742a2a2a,%rsi
    26f2:	75 6e 63 
    26f5:	48 bf 61 74 65 64 2a 	movabs $0x2a2a2a64657461,%rdi
    26fc:	2a 2a 00 
    26ff:	48 89 34 02          	mov    %rsi,(%rdx,%rax,1)
    2703:	48 89 7c 02 08       	mov    %rdi,0x8(%rdx,%rax,1)
    2708:	e8 3f fe ff ff       	callq  254c <explode_bomb>

000000000000270d <phase_defused>:
    270d:	48 83 ec 78          	sub    $0x78,%rsp
    2711:	64 48 8b 04 25 28 00 	mov    %fs:0x28,%rax
    2718:	00 00 
    271a:	48 89 44 24 68       	mov    %rax,0x68(%rsp)
    271f:	31 c0                	xor    %eax,%eax
    2721:	bf 01 00 00 00       	mov    $0x1,%edi
    2726:	e8 fd fc ff ff       	callq  2428 <send_msg>
    272b:	83 3d 7a 2f 20 00 06 	cmpl   $0x6,0x202f7a(%rip)        # 2056ac <num_input_strings>
    2732:	74 19                	je     274d <phase_defused+0x40>
    2734:	48 8b 44 24 68       	mov    0x68(%rsp),%rax
    2739:	64 48 33 04 25 28 00 	xor    %fs:0x28,%rax
    2740:	00 00 
    2742:	0f 85 84 00 00 00    	jne    27cc <phase_defused+0xbf>
    2748:	48 83 c4 78          	add    $0x78,%rsp
    274c:	c3                   	retq   
    274d:	48 8d 4c 24 0c       	lea    0xc(%rsp),%rcx
    2752:	48 8d 54 24 08       	lea    0x8(%rsp),%rdx
    2757:	4c 8d 44 24 10       	lea    0x10(%rsp),%r8
    275c:	48 8d 35 94 11 00 00 	lea    0x1194(%rip),%rsi        # 38f7 <array.3438+0x2d7>
    2763:	48 8d 3d 46 30 20 00 	lea    0x203046(%rip),%rdi        # 2057b0 <input_strings+0xf0>
    276a:	b8 00 00 00 00       	mov    $0x0,%eax
    276f:	e8 6c f1 ff ff       	callq  18e0 <__isoc99_sscanf@plt>
    2774:	83 f8 03             	cmp    $0x3,%eax
    2777:	74 1a                	je     2793 <phase_defused+0x86>
    2779:	48 8d 3d 38 10 00 00 	lea    0x1038(%rip),%rdi        # 37b8 <array.3438+0x198>
    2780:	e8 9b f0 ff ff       	callq  1820 <puts@plt>
    2785:	48 8d 3d 5c 10 00 00 	lea    0x105c(%rip),%rdi        # 37e8 <array.3438+0x1c8>
    278c:	e8 8f f0 ff ff       	callq  1820 <puts@plt>
    2791:	eb a1                	jmp    2734 <phase_defused+0x27>
    2793:	48 8d 7c 24 10       	lea    0x10(%rsp),%rdi
    2798:	48 8d 35 61 11 00 00 	lea    0x1161(%rip),%rsi        # 3900 <array.3438+0x2e0>
    279f:	e8 88 fa ff ff       	callq  222c <strings_not_equal>
    27a4:	85 c0                	test   %eax,%eax
    27a6:	75 d1                	jne    2779 <phase_defused+0x6c>
    27a8:	48 8d 3d a9 0f 00 00 	lea    0xfa9(%rip),%rdi        # 3758 <array.3438+0x138>
    27af:	e8 6c f0 ff ff       	callq  1820 <puts@plt>
    27b4:	48 8d 3d c5 0f 00 00 	lea    0xfc5(%rip),%rdi        # 3780 <array.3438+0x160>
    27bb:	e8 60 f0 ff ff       	callq  1820 <puts@plt>
    27c0:	b8 00 00 00 00       	mov    $0x0,%eax
    27c5:	e8 e8 f8 ff ff       	callq  20b2 <secret_phase>
    27ca:	eb ad                	jmp    2779 <phase_defused+0x6c>
    27cc:	e8 6f f0 ff ff       	callq  1840 <__stack_chk_fail@plt>

00000000000027d1 <sigalrm_handler>:
    27d1:	48 83 ec 08          	sub    $0x8,%rsp
    27d5:	b9 00 00 00 00       	mov    $0x0,%ecx
    27da:	48 8d 15 e7 13 00 00 	lea    0x13e7(%rip),%rdx        # 3bc8 <array.3438+0x5a8>
    27e1:	be 01 00 00 00       	mov    $0x1,%esi
    27e6:	48 8b 3d b3 2e 20 00 	mov    0x202eb3(%rip),%rdi        # 2056a0 <stderr@@GLIBC_2.2.5>
    27ed:	b8 00 00 00 00       	mov    $0x0,%eax
    27f2:	e8 49 f1 ff ff       	callq  1940 <__fprintf_chk@plt>
    27f7:	bf 01 00 00 00       	mov    $0x1,%edi
    27fc:	e8 1f f1 ff ff       	callq  1920 <exit@plt>

0000000000002801 <rio_readlineb>:
    2801:	41 56                	push   %r14
    2803:	41 55                	push   %r13
    2805:	41 54                	push   %r12
    2807:	55                   	push   %rbp
    2808:	53                   	push   %rbx
    2809:	48 89 fb             	mov    %rdi,%rbx
    280c:	49 89 f4             	mov    %rsi,%r12
    280f:	49 89 d6             	mov    %rdx,%r14
    2812:	41 bd 01 00 00 00    	mov    $0x1,%r13d
    2818:	48 8d 6f 10          	lea    0x10(%rdi),%rbp
    281c:	48 83 fa 01          	cmp    $0x1,%rdx
    2820:	77 0c                	ja     282e <rio_readlineb+0x2d>
    2822:	eb 60                	jmp    2884 <rio_readlineb+0x83>
    2824:	e8 d7 ef ff ff       	callq  1800 <__errno_location@plt>
    2829:	83 38 04             	cmpl   $0x4,(%rax)
    282c:	75 67                	jne    2895 <rio_readlineb+0x94>
    282e:	8b 43 04             	mov    0x4(%rbx),%eax
    2831:	85 c0                	test   %eax,%eax
    2833:	7f 20                	jg     2855 <rio_readlineb+0x54>
    2835:	ba 00 20 00 00       	mov    $0x2000,%edx
    283a:	48 89 ee             	mov    %rbp,%rsi
    283d:	8b 3b                	mov    (%rbx),%edi
    283f:	e8 2c f0 ff ff       	callq  1870 <read@plt>
    2844:	89 43 04             	mov    %eax,0x4(%rbx)
    2847:	85 c0                	test   %eax,%eax
    2849:	78 d9                	js     2824 <rio_readlineb+0x23>
    284b:	85 c0                	test   %eax,%eax
    284d:	74 4f                	je     289e <rio_readlineb+0x9d>
    284f:	48 89 6b 08          	mov    %rbp,0x8(%rbx)
    2853:	eb d9                	jmp    282e <rio_readlineb+0x2d>
    2855:	48 8b 53 08          	mov    0x8(%rbx),%rdx
    2859:	0f b6 0a             	movzbl (%rdx),%ecx
    285c:	48 83 c2 01          	add    $0x1,%rdx
    2860:	48 89 53 08          	mov    %rdx,0x8(%rbx)
    2864:	83 e8 01             	sub    $0x1,%eax
    2867:	89 43 04             	mov    %eax,0x4(%rbx)
    286a:	49 83 c4 01          	add    $0x1,%r12
    286e:	41 88 4c 24 ff       	mov    %cl,-0x1(%r12)
    2873:	80 f9 0a             	cmp    $0xa,%cl
    2876:	74 0c                	je     2884 <rio_readlineb+0x83>
    2878:	41 83 c5 01          	add    $0x1,%r13d
    287c:	49 63 c5             	movslq %r13d,%rax
    287f:	4c 39 f0             	cmp    %r14,%rax
    2882:	72 aa                	jb     282e <rio_readlineb+0x2d>
    2884:	41 c6 04 24 00       	movb   $0x0,(%r12)
    2889:	49 63 c5             	movslq %r13d,%rax
    288c:	5b                   	pop    %rbx
    288d:	5d                   	pop    %rbp
    288e:	41 5c                	pop    %r12
    2890:	41 5d                	pop    %r13
    2892:	41 5e                	pop    %r14
    2894:	c3                   	retq   
    2895:	48 c7 c0 ff ff ff ff 	mov    $0xffffffffffffffff,%rax
    289c:	eb 05                	jmp    28a3 <rio_readlineb+0xa2>
    289e:	b8 00 00 00 00       	mov    $0x0,%eax
    28a3:	85 c0                	test   %eax,%eax
    28a5:	75 0d                	jne    28b4 <rio_readlineb+0xb3>
    28a7:	b8 00 00 00 00       	mov    $0x0,%eax
    28ac:	41 83 fd 01          	cmp    $0x1,%r13d
    28b0:	75 d2                	jne    2884 <rio_readlineb+0x83>
    28b2:	eb d8                	jmp    288c <rio_readlineb+0x8b>
    28b4:	48 c7 c0 ff ff ff ff 	mov    $0xffffffffffffffff,%rax
    28bb:	eb cf                	jmp    288c <rio_readlineb+0x8b>

00000000000028bd <submitr>:
    28bd:	41 57                	push   %r15
    28bf:	41 56                	push   %r14
    28c1:	41 55                	push   %r13
    28c3:	41 54                	push   %r12
    28c5:	55                   	push   %rbp
    28c6:	53                   	push   %rbx
    28c7:	48 81 ec 78 a0 00 00 	sub    $0xa078,%rsp
    28ce:	49 89 fd             	mov    %rdi,%r13
    28d1:	89 f5                	mov    %esi,%ebp
    28d3:	48 89 54 24 08       	mov    %rdx,0x8(%rsp)
    28d8:	48 89 4c 24 10       	mov    %rcx,0x10(%rsp)
    28dd:	4c 89 44 24 20       	mov    %r8,0x20(%rsp)
    28e2:	4c 89 4c 24 18       	mov    %r9,0x18(%rsp)
    28e7:	48 8b 9c 24 b0 a0 00 	mov    0xa0b0(%rsp),%rbx
    28ee:	00 
    28ef:	4c 8b bc 24 b8 a0 00 	mov    0xa0b8(%rsp),%r15
    28f6:	00 
    28f7:	64 48 8b 04 25 28 00 	mov    %fs:0x28,%rax
    28fe:	00 00 
    2900:	48 89 84 24 68 a0 00 	mov    %rax,0xa068(%rsp)
    2907:	00 
    2908:	31 c0                	xor    %eax,%eax
    290a:	c7 44 24 3c 00 00 00 	movl   $0x0,0x3c(%rsp)
    2911:	00 
    2912:	ba 00 00 00 00       	mov    $0x0,%edx
    2917:	be 01 00 00 00       	mov    $0x1,%esi
    291c:	bf 02 00 00 00       	mov    $0x2,%edi
    2921:	e8 5a f0 ff ff       	callq  1980 <socket@plt>
    2926:	85 c0                	test   %eax,%eax
    2928:	0f 88 35 01 00 00    	js     2a63 <submitr+0x1a6>
    292e:	41 89 c4             	mov    %eax,%r12d
    2931:	4c 89 ef             	mov    %r13,%rdi
    2934:	e8 67 ef ff ff       	callq  18a0 <gethostbyname@plt>
    2939:	48 85 c0             	test   %rax,%rax
    293c:	0f 84 71 01 00 00    	je     2ab3 <submitr+0x1f6>
    2942:	4c 8d 6c 24 40       	lea    0x40(%rsp),%r13
    2947:	48 c7 44 24 42 00 00 	movq   $0x0,0x42(%rsp)
    294e:	00 00 
    2950:	c7 44 24 4a 00 00 00 	movl   $0x0,0x4a(%rsp)
    2957:	00 
    2958:	66 c7 44 24 4e 00 00 	movw   $0x0,0x4e(%rsp)
    295f:	66 c7 44 24 40 02 00 	movw   $0x2,0x40(%rsp)
    2966:	48 63 50 14          	movslq 0x14(%rax),%rdx
    296a:	48 8b 40 18          	mov    0x18(%rax),%rax
    296e:	48 8d 7c 24 44       	lea    0x44(%rsp),%rdi
    2973:	b9 0c 00 00 00       	mov    $0xc,%ecx
    2978:	48 8b 30             	mov    (%rax),%rsi
    297b:	e8 30 ef ff ff       	callq  18b0 <__memmove_chk@plt>
    2980:	66 c1 cd 08          	ror    $0x8,%bp
    2984:	66 89 6c 24 42       	mov    %bp,0x42(%rsp)
    2989:	ba 10 00 00 00       	mov    $0x10,%edx
    298e:	4c 89 ee             	mov    %r13,%rsi
    2991:	44 89 e7             	mov    %r12d,%edi
    2994:	e8 97 ef ff ff       	callq  1930 <connect@plt>
    2999:	85 c0                	test   %eax,%eax
    299b:	0f 88 7d 01 00 00    	js     2b1e <submitr+0x261>
    29a1:	49 c7 c1 ff ff ff ff 	mov    $0xffffffffffffffff,%r9
    29a8:	b8 00 00 00 00       	mov    $0x0,%eax
    29ad:	4c 89 c9             	mov    %r9,%rcx
    29b0:	48 89 df             	mov    %rbx,%rdi
    29b3:	f2 ae                	repnz scas %es:(%rdi),%al
    29b5:	48 89 ce             	mov    %rcx,%rsi
    29b8:	48 f7 d6             	not    %rsi
    29bb:	4c 89 c9             	mov    %r9,%rcx
    29be:	48 8b 7c 24 08       	mov    0x8(%rsp),%rdi
    29c3:	f2 ae                	repnz scas %es:(%rdi),%al
    29c5:	49 89 c8             	mov    %rcx,%r8
    29c8:	4c 89 c9             	mov    %r9,%rcx
    29cb:	48 8b 7c 24 10       	mov    0x10(%rsp),%rdi
    29d0:	f2 ae                	repnz scas %es:(%rdi),%al
    29d2:	48 89 ca             	mov    %rcx,%rdx
    29d5:	48 f7 d2             	not    %rdx
    29d8:	4c 89 c9             	mov    %r9,%rcx
    29db:	48 8b 7c 24 18       	mov    0x18(%rsp),%rdi
    29e0:	f2 ae                	repnz scas %es:(%rdi),%al
    29e2:	4c 29 c2             	sub    %r8,%rdx
    29e5:	48 29 ca             	sub    %rcx,%rdx
    29e8:	48 8d 44 76 fd       	lea    -0x3(%rsi,%rsi,2),%rax
    29ed:	48 8d 44 02 7b       	lea    0x7b(%rdx,%rax,1),%rax
    29f2:	48 3d 00 20 00 00    	cmp    $0x2000,%rax
    29f8:	0f 87 7d 01 00 00    	ja     2b7b <submitr+0x2be>
    29fe:	48 8d 94 24 60 40 00 	lea    0x4060(%rsp),%rdx
    2a05:	00 
    2a06:	b9 00 04 00 00       	mov    $0x400,%ecx
    2a0b:	b8 00 00 00 00       	mov    $0x0,%eax
    2a10:	48 89 d7             	mov    %rdx,%rdi
    2a13:	f3 48 ab             	rep stos %rax,%es:(%rdi)
    2a16:	48 c7 c1 ff ff ff ff 	mov    $0xffffffffffffffff,%rcx
    2a1d:	48 89 df             	mov    %rbx,%rdi
    2a20:	f2 ae                	repnz scas %es:(%rdi),%al
    2a22:	48 89 ca             	mov    %rcx,%rdx
    2a25:	48 f7 d2             	not    %rdx
    2a28:	48 89 d1             	mov    %rdx,%rcx
    2a2b:	48 83 e9 01          	sub    $0x1,%rcx
    2a2f:	85 c9                	test   %ecx,%ecx
    2a31:	0f 84 3f 06 00 00    	je     3076 <submitr+0x7b9>
    2a37:	8d 41 ff             	lea    -0x1(%rcx),%eax
    2a3a:	4c 8d 74 03 01       	lea    0x1(%rbx,%rax,1),%r14
    2a3f:	48 8d ac 24 60 40 00 	lea    0x4060(%rsp),%rbp
    2a46:	00 
    2a47:	48 8d 84 24 60 80 00 	lea    0x8060(%rsp),%rax
    2a4e:	00 
    2a4f:	48 89 44 24 28       	mov    %rax,0x28(%rsp)
    2a54:	49 bd d9 ff 00 00 00 	movabs $0x2000000000ffd9,%r13
    2a5b:	00 20 00 
    2a5e:	e9 a6 01 00 00       	jmpq   2c09 <submitr+0x34c>
    2a63:	48 b8 45 72 72 6f 72 	movabs $0x43203a726f727245,%rax
    2a6a:	3a 20 43 
    2a6d:	48 ba 6c 69 65 6e 74 	movabs $0x6e7520746e65696c,%rdx
    2a74:	20 75 6e 
    2a77:	49 89 07             	mov    %rax,(%r15)
    2a7a:	49 89 57 08          	mov    %rdx,0x8(%r15)
    2a7e:	48 b8 61 62 6c 65 20 	movabs $0x206f7420656c6261,%rax
    2a85:	74 6f 20 
    2a88:	48 ba 63 72 65 61 74 	movabs $0x7320657461657263,%rdx
    2a8f:	65 20 73 
    2a92:	49 89 47 10          	mov    %rax,0x10(%r15)
    2a96:	49 89 57 18          	mov    %rdx,0x18(%r15)
    2a9a:	41 c7 47 20 6f 63 6b 	movl   $0x656b636f,0x20(%r15)
    2aa1:	65 
    2aa2:	66 41 c7 47 24 74 00 	movw   $0x74,0x24(%r15)
    2aa9:	b8 ff ff ff ff       	mov    $0xffffffff,%eax
    2aae:	e9 9a 04 00 00       	jmpq   2f4d <submitr+0x690>
    2ab3:	48 b8 45 72 72 6f 72 	movabs $0x44203a726f727245,%rax
    2aba:	3a 20 44 
    2abd:	48 ba 4e 53 20 69 73 	movabs $0x6e7520736920534e,%rdx
    2ac4:	20 75 6e 
    2ac7:	49 89 07             	mov    %rax,(%r15)
    2aca:	49 89 57 08          	mov    %rdx,0x8(%r15)
    2ace:	48 b8 61 62 6c 65 20 	movabs $0x206f7420656c6261,%rax
    2ad5:	74 6f 20 
    2ad8:	48 ba 72 65 73 6f 6c 	movabs $0x2065766c6f736572,%rdx
    2adf:	76 65 20 
    2ae2:	49 89 47 10          	mov    %rax,0x10(%r15)
    2ae6:	49 89 57 18          	mov    %rdx,0x18(%r15)
    2aea:	48 b8 73 65 72 76 65 	movabs $0x6120726576726573,%rax
    2af1:	72 20 61 
    2af4:	49 89 47 20          	mov    %rax,0x20(%r15)
    2af8:	41 c7 47 28 64 64 72 	movl   $0x65726464,0x28(%r15)
    2aff:	65 
    2b00:	66 41 c7 47 2c 73 73 	movw   $0x7373,0x2c(%r15)
    2b07:	41 c6 47 2e 00       	movb   $0x0,0x2e(%r15)
    2b0c:	44 89 e7             	mov    %r12d,%edi
    2b0f:	e8 4c ed ff ff       	callq  1860 <close@plt>
    2b14:	b8 ff ff ff ff       	mov    $0xffffffff,%eax
    2b19:	e9 2f 04 00 00       	jmpq   2f4d <submitr+0x690>
    2b1e:	48 b8 45 72 72 6f 72 	movabs $0x55203a726f727245,%rax
    2b25:	3a 20 55 
    2b28:	48 ba 6e 61 62 6c 65 	movabs $0x6f7420656c62616e,%rdx
    2b2f:	20 74 6f 
    2b32:	49 89 07             	mov    %rax,(%r15)
    2b35:	49 89 57 08          	mov    %rdx,0x8(%r15)
    2b39:	48 b8 20 63 6f 6e 6e 	movabs $0x7463656e6e6f6320,%rax
    2b40:	65 63 74 
    2b43:	48 ba 20 74 6f 20 74 	movabs $0x20656874206f7420,%rdx
    2b4a:	68 65 20 
    2b4d:	49 89 47 10          	mov    %rax,0x10(%r15)
    2b51:	49 89 57 18          	mov    %rdx,0x18(%r15)
    2b55:	41 c7 47 20 73 65 72 	movl   $0x76726573,0x20(%r15)
    2b5c:	76 
    2b5d:	66 41 c7 47 24 65 72 	movw   $0x7265,0x24(%r15)
    2b64:	41 c6 47 26 00       	movb   $0x0,0x26(%r15)
    2b69:	44 89 e7             	mov    %r12d,%edi
    2b6c:	e8 ef ec ff ff       	callq  1860 <close@plt>
    2b71:	b8 ff ff ff ff       	mov    $0xffffffff,%eax
    2b76:	e9 d2 03 00 00       	jmpq   2f4d <submitr+0x690>
    2b7b:	48 b8 45 72 72 6f 72 	movabs $0x52203a726f727245,%rax
    2b82:	3a 20 52 
    2b85:	48 ba 65 73 75 6c 74 	movabs $0x747320746c757365,%rdx
    2b8c:	20 73 74 
    2b8f:	49 89 07             	mov    %rax,(%r15)
    2b92:	49 89 57 08          	mov    %rdx,0x8(%r15)
    2b96:	48 b8 72 69 6e 67 20 	movabs $0x6f6f7420676e6972,%rax
    2b9d:	74 6f 6f 
    2ba0:	48 ba 20 6c 61 72 67 	movabs $0x202e656772616c20,%rdx
    2ba7:	65 2e 20 
    2baa:	49 89 47 10          	mov    %rax,0x10(%r15)
    2bae:	49 89 57 18          	mov    %rdx,0x18(%r15)
    2bb2:	48 b8 49 6e 63 72 65 	movabs $0x6573616572636e49,%rax
    2bb9:	61 73 65 
    2bbc:	48 ba 20 53 55 42 4d 	movabs $0x5254494d42555320,%rdx
    2bc3:	49 54 52 
    2bc6:	49 89 47 20          	mov    %rax,0x20(%r15)
    2bca:	49 89 57 28          	mov    %rdx,0x28(%r15)
    2bce:	48 b8 5f 4d 41 58 42 	movabs $0x46554258414d5f,%rax
    2bd5:	55 46 00 
    2bd8:	49 89 47 30          	mov    %rax,0x30(%r15)
    2bdc:	44 89 e7             	mov    %r12d,%edi
    2bdf:	e8 7c ec ff ff       	callq  1860 <close@plt>
    2be4:	b8 ff ff ff ff       	mov    $0xffffffff,%eax
    2be9:	e9 5f 03 00 00       	jmpq   2f4d <submitr+0x690>
    2bee:	49 0f a3 c5          	bt     %rax,%r13
    2bf2:	73 21                	jae    2c15 <submitr+0x358>
    2bf4:	44 88 45 00          	mov    %r8b,0x0(%rbp)
    2bf8:	48 8d 6d 01          	lea    0x1(%rbp),%rbp
    2bfc:	48 83 c3 01          	add    $0x1,%rbx
    2c00:	4c 39 f3             	cmp    %r14,%rbx
    2c03:	0f 84 6d 04 00 00    	je     3076 <submitr+0x7b9>
    2c09:	44 0f b6 03          	movzbl (%rbx),%r8d
    2c0d:	41 8d 40 d6          	lea    -0x2a(%r8),%eax
    2c11:	3c 35                	cmp    $0x35,%al
    2c13:	76 d9                	jbe    2bee <submitr+0x331>
    2c15:	44 89 c0             	mov    %r8d,%eax
    2c18:	83 e0 df             	and    $0xffffffdf,%eax
    2c1b:	83 e8 41             	sub    $0x41,%eax
    2c1e:	3c 19                	cmp    $0x19,%al
    2c20:	76 d2                	jbe    2bf4 <submitr+0x337>
    2c22:	41 80 f8 20          	cmp    $0x20,%r8b
    2c26:	74 60                	je     2c88 <submitr+0x3cb>
    2c28:	41 8d 40 e0          	lea    -0x20(%r8),%eax
    2c2c:	3c 5f                	cmp    $0x5f,%al
    2c2e:	76 0a                	jbe    2c3a <submitr+0x37d>
    2c30:	41 80 f8 09          	cmp    $0x9,%r8b
    2c34:	0f 85 af 03 00 00    	jne    2fe9 <submitr+0x72c>
    2c3a:	45 0f b6 c0          	movzbl %r8b,%r8d
    2c3e:	48 8d 0d 5b 10 00 00 	lea    0x105b(%rip),%rcx        # 3ca0 <array.3438+0x680>
    2c45:	ba 08 00 00 00       	mov    $0x8,%edx
    2c4a:	be 01 00 00 00       	mov    $0x1,%esi
    2c4f:	48 8b 7c 24 28       	mov    0x28(%rsp),%rdi
    2c54:	b8 00 00 00 00       	mov    $0x0,%eax
    2c59:	e8 12 ed ff ff       	callq  1970 <__sprintf_chk@plt>
    2c5e:	0f b6 84 24 60 80 00 	movzbl 0x8060(%rsp),%eax
    2c65:	00 
    2c66:	88 45 00             	mov    %al,0x0(%rbp)
    2c69:	0f b6 84 24 61 80 00 	movzbl 0x8061(%rsp),%eax
    2c70:	00 
    2c71:	88 45 01             	mov    %al,0x1(%rbp)
    2c74:	0f b6 84 24 62 80 00 	movzbl 0x8062(%rsp),%eax
    2c7b:	00 
    2c7c:	88 45 02             	mov    %al,0x2(%rbp)
    2c7f:	48 8d 6d 03          	lea    0x3(%rbp),%rbp
    2c83:	e9 74 ff ff ff       	jmpq   2bfc <submitr+0x33f>
    2c88:	c6 45 00 2b          	movb   $0x2b,0x0(%rbp)
    2c8c:	48 8d 6d 01          	lea    0x1(%rbp),%rbp
    2c90:	e9 67 ff ff ff       	jmpq   2bfc <submitr+0x33f>
    2c95:	49 01 c5             	add    %rax,%r13
    2c98:	48 29 c5             	sub    %rax,%rbp
    2c9b:	74 26                	je     2cc3 <submitr+0x406>
    2c9d:	48 89 ea             	mov    %rbp,%rdx
    2ca0:	4c 89 ee             	mov    %r13,%rsi
    2ca3:	44 89 e7             	mov    %r12d,%edi
    2ca6:	e8 85 eb ff ff       	callq  1830 <write@plt>
    2cab:	48 85 c0             	test   %rax,%rax
    2cae:	7f e5                	jg     2c95 <submitr+0x3d8>
    2cb0:	e8 4b eb ff ff       	callq  1800 <__errno_location@plt>
    2cb5:	83 38 04             	cmpl   $0x4,(%rax)
    2cb8:	0f 85 31 01 00 00    	jne    2def <submitr+0x532>
    2cbe:	4c 89 f0             	mov    %r14,%rax
    2cc1:	eb d2                	jmp    2c95 <submitr+0x3d8>
    2cc3:	48 85 db             	test   %rbx,%rbx
    2cc6:	0f 88 23 01 00 00    	js     2def <submitr+0x532>
    2ccc:	44 89 64 24 50       	mov    %r12d,0x50(%rsp)
    2cd1:	c7 44 24 54 00 00 00 	movl   $0x0,0x54(%rsp)
    2cd8:	00 
    2cd9:	48 8d 7c 24 50       	lea    0x50(%rsp),%rdi
    2cde:	48 8d 47 10          	lea    0x10(%rdi),%rax
    2ce2:	48 89 44 24 58       	mov    %rax,0x58(%rsp)
    2ce7:	48 8d b4 24 60 20 00 	lea    0x2060(%rsp),%rsi
    2cee:	00 
    2cef:	ba 00 20 00 00       	mov    $0x2000,%edx
    2cf4:	e8 08 fb ff ff       	callq  2801 <rio_readlineb>
    2cf9:	48 85 c0             	test   %rax,%rax
    2cfc:	0f 8e 4c 01 00 00    	jle    2e4e <submitr+0x591>
    2d02:	48 8d 4c 24 3c       	lea    0x3c(%rsp),%rcx
    2d07:	48 8d 94 24 60 60 00 	lea    0x6060(%rsp),%rdx
    2d0e:	00 
    2d0f:	48 8d bc 24 60 20 00 	lea    0x2060(%rsp),%rdi
    2d16:	00 
    2d17:	4c 8d 84 24 60 80 00 	lea    0x8060(%rsp),%r8
    2d1e:	00 
    2d1f:	48 8d 35 81 0f 00 00 	lea    0xf81(%rip),%rsi        # 3ca7 <array.3438+0x687>
    2d26:	b8 00 00 00 00       	mov    $0x0,%eax
    2d2b:	e8 b0 eb ff ff       	callq  18e0 <__isoc99_sscanf@plt>
    2d30:	44 8b 44 24 3c       	mov    0x3c(%rsp),%r8d
    2d35:	41 81 f8 c8 00 00 00 	cmp    $0xc8,%r8d
    2d3c:	0f 85 80 01 00 00    	jne    2ec2 <submitr+0x605>
    2d42:	48 8d 9c 24 60 20 00 	lea    0x2060(%rsp),%rbx
    2d49:	00 
    2d4a:	48 8d 2d 67 0f 00 00 	lea    0xf67(%rip),%rbp        # 3cb8 <array.3438+0x698>
    2d51:	4c 8d 6c 24 50       	lea    0x50(%rsp),%r13
    2d56:	b9 03 00 00 00       	mov    $0x3,%ecx
    2d5b:	48 89 de             	mov    %rbx,%rsi
    2d5e:	48 89 ef             	mov    %rbp,%rdi
    2d61:	f3 a6                	repz cmpsb %es:(%rdi),%ds:(%rsi)
    2d63:	0f 97 c0             	seta   %al
    2d66:	1c 00                	sbb    $0x0,%al
    2d68:	84 c0                	test   %al,%al
    2d6a:	0f 84 89 01 00 00    	je     2ef9 <submitr+0x63c>
    2d70:	ba 00 20 00 00       	mov    $0x2000,%edx
    2d75:	48 89 de             	mov    %rbx,%rsi
    2d78:	4c 89 ef             	mov    %r13,%rdi
    2d7b:	e8 81 fa ff ff       	callq  2801 <rio_readlineb>
    2d80:	48 85 c0             	test   %rax,%rax
    2d83:	7f d1                	jg     2d56 <submitr+0x499>
    2d85:	48 b8 45 72 72 6f 72 	movabs $0x43203a726f727245,%rax
    2d8c:	3a 20 43 
    2d8f:	48 ba 6c 69 65 6e 74 	movabs $0x6e7520746e65696c,%rdx
    2d96:	20 75 6e 
    2d99:	49 89 07             	mov    %rax,(%r15)
    2d9c:	49 89 57 08          	mov    %rdx,0x8(%r15)
    2da0:	48 b8 61 62 6c 65 20 	movabs $0x206f7420656c6261,%rax
    2da7:	74 6f 20 
    2daa:	48 ba 72 65 61 64 20 	movabs $0x6165682064616572,%rdx
    2db1:	68 65 61 
    2db4:	49 89 47 10          	mov    %rax,0x10(%r15)
    2db8:	49 89 57 18          	mov    %rdx,0x18(%r15)
    2dbc:	48 b8 64 65 72 73 20 	movabs $0x6f72662073726564,%rax
    2dc3:	66 72 6f 
    2dc6:	48 ba 6d 20 73 65 72 	movabs $0x726576726573206d,%rdx
    2dcd:	76 65 72 
    2dd0:	49 89 47 20          	mov    %rax,0x20(%r15)
    2dd4:	49 89 57 28          	mov    %rdx,0x28(%r15)
    2dd8:	41 c6 47 30 00       	movb   $0x0,0x30(%r15)
    2ddd:	44 89 e7             	mov    %r12d,%edi
    2de0:	e8 7b ea ff ff       	callq  1860 <close@plt>
    2de5:	b8 ff ff ff ff       	mov    $0xffffffff,%eax
    2dea:	e9 5e 01 00 00       	jmpq   2f4d <submitr+0x690>
    2def:	48 b8 45 72 72 6f 72 	movabs $0x43203a726f727245,%rax
    2df6:	3a 20 43 
    2df9:	48 ba 6c 69 65 6e 74 	movabs $0x6e7520746e65696c,%rdx
    2e00:	20 75 6e 
    2e03:	49 89 07             	mov    %rax,(%r15)
    2e06:	49 89 57 08          	mov    %rdx,0x8(%r15)
    2e0a:	48 b8 61 62 6c 65 20 	movabs $0x206f7420656c6261,%rax
    2e11:	74 6f 20 
    2e14:	48 ba 77 72 69 74 65 	movabs $0x6f74206574697277,%rdx
    2e1b:	20 74 6f 
    2e1e:	49 89 47 10          	mov    %rax,0x10(%r15)
    2e22:	49 89 57 18          	mov    %rdx,0x18(%r15)
    2e26:	48 b8 20 74 68 65 20 	movabs $0x7265732065687420,%rax
    2e2d:	73 65 72 
    2e30:	49 89 47 20          	mov    %rax,0x20(%r15)
    2e34:	41 c7 47 28 76 65 72 	movl   $0x726576,0x28(%r15)
    2e3b:	00 
    2e3c:	44 89 e7             	mov    %r12d,%edi
    2e3f:	e8 1c ea ff ff       	callq  1860 <close@plt>
    2e44:	b8 ff ff ff ff       	mov    $0xffffffff,%eax
    2e49:	e9 ff 00 00 00       	jmpq   2f4d <submitr+0x690>
    2e4e:	48 b8 45 72 72 6f 72 	movabs $0x43203a726f727245,%rax
    2e55:	3a 20 43 
    2e58:	48 ba 6c 69 65 6e 74 	movabs $0x6e7520746e65696c,%rdx
    2e5f:	20 75 6e 
    2e62:	49 89 07             	mov    %rax,(%r15)
    2e65:	49 89 57 08          	mov    %rdx,0x8(%r15)
    2e69:	48 b8 61 62 6c 65 20 	movabs $0x206f7420656c6261,%rax
    2e70:	74 6f 20 
    2e73:	48 ba 72 65 61 64 20 	movabs $0x7269662064616572,%rdx
    2e7a:	66 69 72 
    2e7d:	49 89 47 10          	mov    %rax,0x10(%r15)
    2e81:	49 89 57 18          	mov    %rdx,0x18(%r15)
    2e85:	48 b8 73 74 20 68 65 	movabs $0x6564616568207473,%rax
    2e8c:	61 64 65 
    2e8f:	48 ba 72 20 66 72 6f 	movabs $0x73206d6f72662072,%rdx
    2e96:	6d 20 73 
    2e99:	49 89 47 20          	mov    %rax,0x20(%r15)
    2e9d:	49 89 57 28          	mov    %rdx,0x28(%r15)
    2ea1:	41 c7 47 30 65 72 76 	movl   $0x65767265,0x30(%r15)
    2ea8:	65 
    2ea9:	66 41 c7 47 34 72 00 	movw   $0x72,0x34(%r15)
    2eb0:	44 89 e7             	mov    %r12d,%edi
    2eb3:	e8 a8 e9 ff ff       	callq  1860 <close@plt>
    2eb8:	b8 ff ff ff ff       	mov    $0xffffffff,%eax
    2ebd:	e9 8b 00 00 00       	jmpq   2f4d <submitr+0x690>
    2ec2:	4c 8d 8c 24 60 80 00 	lea    0x8060(%rsp),%r9
    2ec9:	00 
    2eca:	48 8d 0d 1f 0d 00 00 	lea    0xd1f(%rip),%rcx        # 3bf0 <array.3438+0x5d0>
    2ed1:	48 c7 c2 ff ff ff ff 	mov    $0xffffffffffffffff,%rdx
    2ed8:	be 01 00 00 00       	mov    $0x1,%esi
    2edd:	4c 89 ff             	mov    %r15,%rdi
    2ee0:	b8 00 00 00 00       	mov    $0x0,%eax
    2ee5:	e8 86 ea ff ff       	callq  1970 <__sprintf_chk@plt>
    2eea:	44 89 e7             	mov    %r12d,%edi
    2eed:	e8 6e e9 ff ff       	callq  1860 <close@plt>
    2ef2:	b8 ff ff ff ff       	mov    $0xffffffff,%eax
    2ef7:	eb 54                	jmp    2f4d <submitr+0x690>
    2ef9:	48 8d b4 24 60 20 00 	lea    0x2060(%rsp),%rsi
    2f00:	00 
    2f01:	48 8d 7c 24 50       	lea    0x50(%rsp),%rdi
    2f06:	ba 00 20 00 00       	mov    $0x2000,%edx
    2f0b:	e8 f1 f8 ff ff       	callq  2801 <rio_readlineb>
    2f10:	48 85 c0             	test   %rax,%rax
    2f13:	7e 61                	jle    2f76 <submitr+0x6b9>
    2f15:	48 8d b4 24 60 20 00 	lea    0x2060(%rsp),%rsi
    2f1c:	00 
    2f1d:	4c 89 ff             	mov    %r15,%rdi
    2f20:	e8 eb e8 ff ff       	callq  1810 <strcpy@plt>
    2f25:	44 89 e7             	mov    %r12d,%edi
    2f28:	e8 33 e9 ff ff       	callq  1860 <close@plt>
    2f2d:	b9 03 00 00 00       	mov    $0x3,%ecx
    2f32:	48 8d 3d 82 0d 00 00 	lea    0xd82(%rip),%rdi        # 3cbb <array.3438+0x69b>
    2f39:	4c 89 fe             	mov    %r15,%rsi
    2f3c:	f3 a6                	repz cmpsb %es:(%rdi),%ds:(%rsi)
    2f3e:	0f 97 c0             	seta   %al
    2f41:	1c 00                	sbb    $0x0,%al
    2f43:	84 c0                	test   %al,%al
    2f45:	0f 95 c0             	setne  %al
    2f48:	0f b6 c0             	movzbl %al,%eax
    2f4b:	f7 d8                	neg    %eax
    2f4d:	48 8b 94 24 68 a0 00 	mov    0xa068(%rsp),%rdx
    2f54:	00 
    2f55:	64 48 33 14 25 28 00 	xor    %fs:0x28,%rdx
    2f5c:	00 00 
    2f5e:	0f 85 95 01 00 00    	jne    30f9 <submitr+0x83c>
    2f64:	48 81 c4 78 a0 00 00 	add    $0xa078,%rsp
    2f6b:	5b                   	pop    %rbx
    2f6c:	5d                   	pop    %rbp
    2f6d:	41 5c                	pop    %r12
    2f6f:	41 5d                	pop    %r13
    2f71:	41 5e                	pop    %r14
    2f73:	41 5f                	pop    %r15
    2f75:	c3                   	retq   
    2f76:	48 b8 45 72 72 6f 72 	movabs $0x43203a726f727245,%rax
    2f7d:	3a 20 43 
    2f80:	48 ba 6c 69 65 6e 74 	movabs $0x6e7520746e65696c,%rdx
    2f87:	20 75 6e 
    2f8a:	49 89 07             	mov    %rax,(%r15)
    2f8d:	49 89 57 08          	mov    %rdx,0x8(%r15)
    2f91:	48 b8 61 62 6c 65 20 	movabs $0x206f7420656c6261,%rax
    2f98:	74 6f 20 
    2f9b:	48 ba 72 65 61 64 20 	movabs $0x6174732064616572,%rdx
    2fa2:	73 74 61 
    2fa5:	49 89 47 10          	mov    %rax,0x10(%r15)
    2fa9:	49 89 57 18          	mov    %rdx,0x18(%r15)
    2fad:	48 b8 74 75 73 20 6d 	movabs $0x7373656d20737574,%rax
    2fb4:	65 73 73 
    2fb7:	48 ba 61 67 65 20 66 	movabs $0x6d6f726620656761,%rdx
    2fbe:	72 6f 6d 
    2fc1:	49 89 47 20          	mov    %rax,0x20(%r15)
    2fc5:	49 89 57 28          	mov    %rdx,0x28(%r15)
    2fc9:	48 b8 20 73 65 72 76 	movabs $0x72657672657320,%rax
    2fd0:	65 72 00 
    2fd3:	49 89 47 30          	mov    %rax,0x30(%r15)
    2fd7:	44 89 e7             	mov    %r12d,%edi
    2fda:	e8 81 e8 ff ff       	callq  1860 <close@plt>
    2fdf:	b8 ff ff ff ff       	mov    $0xffffffff,%eax
    2fe4:	e9 64 ff ff ff       	jmpq   2f4d <submitr+0x690>
    2fe9:	48 b8 45 72 72 6f 72 	movabs $0x52203a726f727245,%rax
    2ff0:	3a 20 52 
    2ff3:	48 ba 65 73 75 6c 74 	movabs $0x747320746c757365,%rdx
    2ffa:	20 73 74 
    2ffd:	49 89 07             	mov    %rax,(%r15)
    3000:	49 89 57 08          	mov    %rdx,0x8(%r15)
    3004:	48 b8 72 69 6e 67 20 	movabs $0x6e6f6320676e6972,%rax
    300b:	63 6f 6e 
    300e:	48 ba 74 61 69 6e 73 	movabs $0x6e6120736e696174,%rdx
    3015:	20 61 6e 
    3018:	49 89 47 10          	mov    %rax,0x10(%r15)
    301c:	49 89 57 18          	mov    %rdx,0x18(%r15)
    3020:	48 b8 20 69 6c 6c 65 	movabs $0x6c6167656c6c6920,%rax
    3027:	67 61 6c 
    302a:	48 ba 20 6f 72 20 75 	movabs $0x72706e7520726f20,%rdx
    3031:	6e 70 72 
    3034:	49 89 47 20          	mov    %rax,0x20(%r15)
    3038:	49 89 57 28          	mov    %rdx,0x28(%r15)
    303c:	48 b8 69 6e 74 61 62 	movabs $0x20656c6261746e69,%rax
    3043:	6c 65 20 
    3046:	48 ba 63 68 61 72 61 	movabs $0x6574636172616863,%rdx
    304d:	63 74 65 
    3050:	49 89 47 30          	mov    %rax,0x30(%r15)
    3054:	49 89 57 38          	mov    %rdx,0x38(%r15)
    3058:	66 41 c7 47 40 72 2e 	movw   $0x2e72,0x40(%r15)
    305f:	41 c6 47 42 00       	movb   $0x0,0x42(%r15)
    3064:	44 89 e7             	mov    %r12d,%edi
    3067:	e8 f4 e7 ff ff       	callq  1860 <close@plt>
    306c:	b8 ff ff ff ff       	mov    $0xffffffff,%eax
    3071:	e9 d7 fe ff ff       	jmpq   2f4d <submitr+0x690>
    3076:	48 8d 9c 24 60 20 00 	lea    0x2060(%rsp),%rbx
    307d:	00 
    307e:	48 83 ec 08          	sub    $0x8,%rsp
    3082:	48 8d 84 24 68 40 00 	lea    0x4068(%rsp),%rax
    3089:	00 
    308a:	50                   	push   %rax
    308b:	ff 74 24 28          	pushq  0x28(%rsp)
    308f:	ff 74 24 38          	pushq  0x38(%rsp)
    3093:	4c 8b 4c 24 30       	mov    0x30(%rsp),%r9
    3098:	4c 8b 44 24 28       	mov    0x28(%rsp),%r8
    309d:	48 8d 0d 7c 0b 00 00 	lea    0xb7c(%rip),%rcx        # 3c20 <array.3438+0x600>
    30a4:	ba 00 20 00 00       	mov    $0x2000,%edx
    30a9:	be 01 00 00 00       	mov    $0x1,%esi
    30ae:	48 89 df             	mov    %rbx,%rdi
    30b1:	b8 00 00 00 00       	mov    $0x0,%eax
    30b6:	e8 b5 e8 ff ff       	callq  1970 <__sprintf_chk@plt>
    30bb:	48 c7 c1 ff ff ff ff 	mov    $0xffffffffffffffff,%rcx
    30c2:	b8 00 00 00 00       	mov    $0x0,%eax
    30c7:	48 89 df             	mov    %rbx,%rdi
    30ca:	f2 ae                	repnz scas %es:(%rdi),%al
    30cc:	48 f7 d1             	not    %rcx
    30cf:	48 89 cb             	mov    %rcx,%rbx
    30d2:	48 83 eb 01          	sub    $0x1,%rbx
    30d6:	48 83 c4 20          	add    $0x20,%rsp
    30da:	48 89 dd             	mov    %rbx,%rbp
    30dd:	4c 8d ac 24 60 20 00 	lea    0x2060(%rsp),%r13
    30e4:	00 
    30e5:	41 be 00 00 00 00    	mov    $0x0,%r14d
    30eb:	48 85 db             	test   %rbx,%rbx
    30ee:	0f 85 a9 fb ff ff    	jne    2c9d <submitr+0x3e0>
    30f4:	e9 d3 fb ff ff       	jmpq   2ccc <submitr+0x40f>
    30f9:	e8 42 e7 ff ff       	callq  1840 <__stack_chk_fail@plt>

00000000000030fe <init_timeout>:
    30fe:	85 ff                	test   %edi,%edi
    3100:	74 25                	je     3127 <init_timeout+0x29>
    3102:	53                   	push   %rbx
    3103:	89 fb                	mov    %edi,%ebx
    3105:	48 8d 35 c5 f6 ff ff 	lea    -0x93b(%rip),%rsi        # 27d1 <sigalrm_handler>
    310c:	bf 0e 00 00 00       	mov    $0xe,%edi
    3111:	e8 7a e7 ff ff       	callq  1890 <signal@plt>
    3116:	85 db                	test   %ebx,%ebx
    3118:	bf 00 00 00 00       	mov    $0x0,%edi
    311d:	0f 49 fb             	cmovns %ebx,%edi
    3120:	e8 2b e7 ff ff       	callq  1850 <alarm@plt>
    3125:	5b                   	pop    %rbx
    3126:	c3                   	retq   
    3127:	f3 c3                	repz retq 

0000000000003129 <init_driver>:
    3129:	41 54                	push   %r12
    312b:	55                   	push   %rbp
    312c:	53                   	push   %rbx
    312d:	48 83 ec 20          	sub    $0x20,%rsp
    3131:	49 89 fc             	mov    %rdi,%r12
    3134:	64 48 8b 04 25 28 00 	mov    %fs:0x28,%rax
    313b:	00 00 
    313d:	48 89 44 24 18       	mov    %rax,0x18(%rsp)
    3142:	31 c0                	xor    %eax,%eax
    3144:	be 01 00 00 00       	mov    $0x1,%esi
    3149:	bf 0d 00 00 00       	mov    $0xd,%edi
    314e:	e8 3d e7 ff ff       	callq  1890 <signal@plt>
    3153:	be 01 00 00 00       	mov    $0x1,%esi
    3158:	bf 1d 00 00 00       	mov    $0x1d,%edi
    315d:	e8 2e e7 ff ff       	callq  1890 <signal@plt>
    3162:	be 01 00 00 00       	mov    $0x1,%esi
    3167:	bf 1d 00 00 00       	mov    $0x1d,%edi
    316c:	e8 1f e7 ff ff       	callq  1890 <signal@plt>
    3171:	ba 00 00 00 00       	mov    $0x0,%edx
    3176:	be 01 00 00 00       	mov    $0x1,%esi
    317b:	bf 02 00 00 00       	mov    $0x2,%edi
    3180:	e8 fb e7 ff ff       	callq  1980 <socket@plt>
    3185:	85 c0                	test   %eax,%eax
    3187:	0f 88 a3 00 00 00    	js     3230 <init_driver+0x107>
    318d:	89 c3                	mov    %eax,%ebx
    318f:	48 8d 3d 28 0b 00 00 	lea    0xb28(%rip),%rdi        # 3cbe <array.3438+0x69e>
    3196:	e8 05 e7 ff ff       	callq  18a0 <gethostbyname@plt>
    319b:	48 85 c0             	test   %rax,%rax
    319e:	0f 84 df 00 00 00    	je     3283 <init_driver+0x15a>
    31a4:	48 89 e5             	mov    %rsp,%rbp
    31a7:	48 c7 44 24 02 00 00 	movq   $0x0,0x2(%rsp)
    31ae:	00 00 
    31b0:	c7 45 0a 00 00 00 00 	movl   $0x0,0xa(%rbp)
    31b7:	66 c7 45 0e 00 00    	movw   $0x0,0xe(%rbp)
    31bd:	66 c7 04 24 02 00    	movw   $0x2,(%rsp)
    31c3:	48 63 50 14          	movslq 0x14(%rax),%rdx
    31c7:	48 8b 40 18          	mov    0x18(%rax),%rax
    31cb:	48 8d 7d 04          	lea    0x4(%rbp),%rdi
    31cf:	b9 0c 00 00 00       	mov    $0xc,%ecx
    31d4:	48 8b 30             	mov    (%rax),%rsi
    31d7:	e8 d4 e6 ff ff       	callq  18b0 <__memmove_chk@plt>
    31dc:	66 c7 44 24 02 1f 94 	movw   $0x941f,0x2(%rsp)
    31e3:	ba 10 00 00 00       	mov    $0x10,%edx
    31e8:	48 89 ee             	mov    %rbp,%rsi
    31eb:	89 df                	mov    %ebx,%edi
    31ed:	e8 3e e7 ff ff       	callq  1930 <connect@plt>
    31f2:	85 c0                	test   %eax,%eax
    31f4:	0f 88 fb 00 00 00    	js     32f5 <init_driver+0x1cc>
    31fa:	89 df                	mov    %ebx,%edi
    31fc:	e8 5f e6 ff ff       	callq  1860 <close@plt>
    3201:	66 41 c7 04 24 4f 4b 	movw   $0x4b4f,(%r12)
    3208:	41 c6 44 24 02 00    	movb   $0x0,0x2(%r12)
    320e:	b8 00 00 00 00       	mov    $0x0,%eax
    3213:	48 8b 4c 24 18       	mov    0x18(%rsp),%rcx
    3218:	64 48 33 0c 25 28 00 	xor    %fs:0x28,%rcx
    321f:	00 00 
    3221:	0f 85 06 01 00 00    	jne    332d <init_driver+0x204>
    3227:	48 83 c4 20          	add    $0x20,%rsp
    322b:	5b                   	pop    %rbx
    322c:	5d                   	pop    %rbp
    322d:	41 5c                	pop    %r12
    322f:	c3                   	retq   
    3230:	48 b8 45 72 72 6f 72 	movabs $0x43203a726f727245,%rax
    3237:	3a 20 43 
    323a:	48 ba 6c 69 65 6e 74 	movabs $0x6e7520746e65696c,%rdx
    3241:	20 75 6e 
    3244:	49 89 04 24          	mov    %rax,(%r12)
    3248:	49 89 54 24 08       	mov    %rdx,0x8(%r12)
    324d:	48 b8 61 62 6c 65 20 	movabs $0x206f7420656c6261,%rax
    3254:	74 6f 20 
    3257:	48 ba 63 72 65 61 74 	movabs $0x7320657461657263,%rdx
    325e:	65 20 73 
    3261:	49 89 44 24 10       	mov    %rax,0x10(%r12)
    3266:	49 89 54 24 18       	mov    %rdx,0x18(%r12)
    326b:	41 c7 44 24 20 6f 63 	movl   $0x656b636f,0x20(%r12)
    3272:	6b 65 
    3274:	66 41 c7 44 24 24 74 	movw   $0x74,0x24(%r12)
    327b:	00 
    327c:	b8 ff ff ff ff       	mov    $0xffffffff,%eax
    3281:	eb 90                	jmp    3213 <init_driver+0xea>
    3283:	48 b8 45 72 72 6f 72 	movabs $0x44203a726f727245,%rax
    328a:	3a 20 44 
    328d:	48 ba 4e 53 20 69 73 	movabs $0x6e7520736920534e,%rdx
    3294:	20 75 6e 
    3297:	49 89 04 24          	mov    %rax,(%r12)
    329b:	49 89 54 24 08       	mov    %rdx,0x8(%r12)
    32a0:	48 b8 61 62 6c 65 20 	movabs $0x206f7420656c6261,%rax
    32a7:	74 6f 20 
    32aa:	48 ba 72 65 73 6f 6c 	movabs $0x2065766c6f736572,%rdx
    32b1:	76 65 20 
    32b4:	49 89 44 24 10       	mov    %rax,0x10(%r12)
    32b9:	49 89 54 24 18       	mov    %rdx,0x18(%r12)
    32be:	48 b8 73 65 72 76 65 	movabs $0x6120726576726573,%rax
    32c5:	72 20 61 
    32c8:	49 89 44 24 20       	mov    %rax,0x20(%r12)
    32cd:	41 c7 44 24 28 64 64 	movl   $0x65726464,0x28(%r12)
    32d4:	72 65 
    32d6:	66 41 c7 44 24 2c 73 	movw   $0x7373,0x2c(%r12)
    32dd:	73 
    32de:	41 c6 44 24 2e 00    	movb   $0x0,0x2e(%r12)
    32e4:	89 df                	mov    %ebx,%edi
    32e6:	e8 75 e5 ff ff       	callq  1860 <close@plt>
    32eb:	b8 ff ff ff ff       	mov    $0xffffffff,%eax
    32f0:	e9 1e ff ff ff       	jmpq   3213 <init_driver+0xea>
    32f5:	4c 8d 05 c2 09 00 00 	lea    0x9c2(%rip),%r8        # 3cbe <array.3438+0x69e>
    32fc:	48 8d 0d 75 09 00 00 	lea    0x975(%rip),%rcx        # 3c78 <array.3438+0x658>
    3303:	48 c7 c2 ff ff ff ff 	mov    $0xffffffffffffffff,%rdx
    330a:	be 01 00 00 00       	mov    $0x1,%esi
    330f:	4c 89 e7             	mov    %r12,%rdi
    3312:	b8 00 00 00 00       	mov    $0x0,%eax
    3317:	e8 54 e6 ff ff       	callq  1970 <__sprintf_chk@plt>
    331c:	89 df                	mov    %ebx,%edi
    331e:	e8 3d e5 ff ff       	callq  1860 <close@plt>
    3323:	b8 ff ff ff ff       	mov    $0xffffffff,%eax
    3328:	e9 e6 fe ff ff       	jmpq   3213 <init_driver+0xea>
    332d:	e8 0e e5 ff ff       	callq  1840 <__stack_chk_fail@plt>

0000000000003332 <driver_post>:
    3332:	53                   	push   %rbx
    3333:	4c 89 c3             	mov    %r8,%rbx
    3336:	85 c9                	test   %ecx,%ecx
    3338:	75 17                	jne    3351 <driver_post+0x1f>
    333a:	48 85 ff             	test   %rdi,%rdi
    333d:	74 05                	je     3344 <driver_post+0x12>
    333f:	80 3f 00             	cmpb   $0x0,(%rdi)
    3342:	75 33                	jne    3377 <driver_post+0x45>
    3344:	66 c7 03 4f 4b       	movw   $0x4b4f,(%rbx)
    3349:	c6 43 02 00          	movb   $0x0,0x2(%rbx)
    334d:	89 c8                	mov    %ecx,%eax
    334f:	5b                   	pop    %rbx
    3350:	c3                   	retq   
    3351:	48 8d 35 75 09 00 00 	lea    0x975(%rip),%rsi        # 3ccd <array.3438+0x6ad>
    3358:	bf 01 00 00 00       	mov    $0x1,%edi
    335d:	b8 00 00 00 00       	mov    $0x0,%eax
    3362:	e8 89 e5 ff ff       	callq  18f0 <__printf_chk@plt>
    3367:	66 c7 03 4f 4b       	movw   $0x4b4f,(%rbx)
    336c:	c6 43 02 00          	movb   $0x0,0x2(%rbx)
    3370:	b8 00 00 00 00       	mov    $0x0,%eax
    3375:	eb d8                	jmp    334f <driver_post+0x1d>
    3377:	41 50                	push   %r8
    3379:	52                   	push   %rdx
    337a:	4c 8d 0d 63 09 00 00 	lea    0x963(%rip),%r9        # 3ce4 <array.3438+0x6c4>
    3381:	49 89 f0             	mov    %rsi,%r8
    3384:	48 89 f9             	mov    %rdi,%rcx
    3387:	48 8d 15 5a 09 00 00 	lea    0x95a(%rip),%rdx        # 3ce8 <array.3438+0x6c8>
    338e:	be 94 1f 00 00       	mov    $0x1f94,%esi
    3393:	48 8d 3d 24 09 00 00 	lea    0x924(%rip),%rdi        # 3cbe <array.3438+0x69e>
    339a:	e8 1e f5 ff ff       	callq  28bd <submitr>
    339f:	48 83 c4 10          	add    $0x10,%rsp
    33a3:	eb aa                	jmp    334f <driver_post+0x1d>
    33a5:	66 2e 0f 1f 84 00 00 	nopw   %cs:0x0(%rax,%rax,1)
    33ac:	00 00 00 
    33af:	90                   	nop

00000000000033b0 <__libc_csu_init>:
    33b0:	41 57                	push   %r15
    33b2:	41 56                	push   %r14
    33b4:	49 89 d7             	mov    %rdx,%r15
    33b7:	41 55                	push   %r13
    33b9:	41 54                	push   %r12
    33bb:	4c 8d 25 1e 19 20 00 	lea    0x20191e(%rip),%r12        # 204ce0 <__frame_dummy_init_array_entry>
    33c2:	55                   	push   %rbp
    33c3:	48 8d 2d 1e 19 20 00 	lea    0x20191e(%rip),%rbp        # 204ce8 <__init_array_end>
    33ca:	53                   	push   %rbx
    33cb:	41 89 fd             	mov    %edi,%r13d
    33ce:	49 89 f6             	mov    %rsi,%r14
    33d1:	4c 29 e5             	sub    %r12,%rbp
    33d4:	48 83 ec 08          	sub    $0x8,%rsp
    33d8:	48 c1 fd 03          	sar    $0x3,%rbp
    33dc:	e8 bf e3 ff ff       	callq  17a0 <_init>
    33e1:	48 85 ed             	test   %rbp,%rbp
    33e4:	74 20                	je     3406 <__libc_csu_init+0x56>
    33e6:	31 db                	xor    %ebx,%ebx
    33e8:	0f 1f 84 00 00 00 00 	nopl   0x0(%rax,%rax,1)
    33ef:	00 
    33f0:	4c 89 fa             	mov    %r15,%rdx
    33f3:	4c 89 f6             	mov    %r14,%rsi
    33f6:	44 89 ef             	mov    %r13d,%edi
    33f9:	41 ff 14 dc          	callq  *(%r12,%rbx,8)
    33fd:	48 83 c3 01          	add    $0x1,%rbx
    3401:	48 39 dd             	cmp    %rbx,%rbp
    3404:	75 ea                	jne    33f0 <__libc_csu_init+0x40>
    3406:	48 83 c4 08          	add    $0x8,%rsp
    340a:	5b                   	pop    %rbx
    340b:	5d                   	pop    %rbp
    340c:	41 5c                	pop    %r12
    340e:	41 5d                	pop    %r13
    3410:	41 5e                	pop    %r14
    3412:	41 5f                	pop    %r15
    3414:	c3                   	retq   
    3415:	90                   	nop
    3416:	66 2e 0f 1f 84 00 00 	nopw   %cs:0x0(%rax,%rax,1)
    341d:	00 00 00 

0000000000003420 <__libc_csu_fini>:
    3420:	f3 c3                	repz retq 

Disassembly of section .fini:

0000000000003424 <_fini>:
    3424:	48 83 ec 08          	sub    $0x8,%rsp
    3428:	48 83 c4 08          	add    $0x8,%rsp
    342c:	c3                   	retq   
